
user/_usertests:     file format elf64-littleriscv


Disassembly of section .text:

0000000000000000 <copyinstr1>:
}

// what if you pass ridiculous string pointers to system calls?
void
copyinstr1(char *s)
{
       0:	1141                	addi	sp,sp,-16
       2:	e406                	sd	ra,8(sp)
       4:	e022                	sd	s0,0(sp)
       6:	0800                	addi	s0,sp,16
  uint64 addrs[] = { 0x80000000LL, 0xffffffffffffffff };

  for(int ai = 0; ai < 2; ai++){
    uint64 addr = addrs[ai];

    int fd = open((char *)addr, O_CREATE|O_WRONLY);
       8:	20100593          	li	a1,513
       c:	4505                	li	a0,1
       e:	057e                	slli	a0,a0,0x1f
      10:	00006097          	auipc	ra,0x6
      14:	7f6080e7          	jalr	2038(ra) # 6806 <open>
    if(fd >= 0){
      18:	02055063          	bgez	a0,38 <copyinstr1+0x38>
    int fd = open((char *)addr, O_CREATE|O_WRONLY);
      1c:	20100593          	li	a1,513
      20:	557d                	li	a0,-1
      22:	00006097          	auipc	ra,0x6
      26:	7e4080e7          	jalr	2020(ra) # 6806 <open>
    uint64 addr = addrs[ai];
      2a:	55fd                	li	a1,-1
    if(fd >= 0){
      2c:	00055863          	bgez	a0,3c <copyinstr1+0x3c>
      printf("open(%p) returned %d, not -1\n", addr, fd);
      exit(1,"");
    }
  }
}
      30:	60a2                	ld	ra,8(sp)
      32:	6402                	ld	s0,0(sp)
      34:	0141                	addi	sp,sp,16
      36:	8082                	ret
    uint64 addr = addrs[ai];
      38:	4585                	li	a1,1
      3a:	05fe                	slli	a1,a1,0x1f
      printf("open(%p) returned %d, not -1\n", addr, fd);
      3c:	862a                	mv	a2,a0
      3e:	00007517          	auipc	a0,0x7
      42:	ce250513          	addi	a0,a0,-798 # 6d20 <malloc+0x104>
      46:	00007097          	auipc	ra,0x7
      4a:	b18080e7          	jalr	-1256(ra) # 6b5e <printf>
      exit(1,"");
      4e:	00008597          	auipc	a1,0x8
      52:	2fa58593          	addi	a1,a1,762 # 8348 <malloc+0x172c>
      56:	4505                	li	a0,1
      58:	00006097          	auipc	ra,0x6
      5c:	76e080e7          	jalr	1902(ra) # 67c6 <exit>

0000000000000060 <bsstest>:
void
bsstest(char *s)
{
  int i;

  for(i = 0; i < sizeof(uninit); i++){
      60:	0000b797          	auipc	a5,0xb
      64:	50878793          	addi	a5,a5,1288 # b568 <uninit>
      68:	0000e697          	auipc	a3,0xe
      6c:	c1068693          	addi	a3,a3,-1008 # dc78 <buf>
    if(uninit[i] != '\0'){
      70:	0007c703          	lbu	a4,0(a5)
      74:	e709                	bnez	a4,7e <bsstest+0x1e>
  for(i = 0; i < sizeof(uninit); i++){
      76:	0785                	addi	a5,a5,1
      78:	fed79ce3          	bne	a5,a3,70 <bsstest+0x10>
      7c:	8082                	ret
{
      7e:	1141                	addi	sp,sp,-16
      80:	e406                	sd	ra,8(sp)
      82:	e022                	sd	s0,0(sp)
      84:	0800                	addi	s0,sp,16
      printf("%s: bss test failed\n", s);
      86:	85aa                	mv	a1,a0
      88:	00007517          	auipc	a0,0x7
      8c:	cb850513          	addi	a0,a0,-840 # 6d40 <malloc+0x124>
      90:	00007097          	auipc	ra,0x7
      94:	ace080e7          	jalr	-1330(ra) # 6b5e <printf>
      exit(1,"");
      98:	00008597          	auipc	a1,0x8
      9c:	2b058593          	addi	a1,a1,688 # 8348 <malloc+0x172c>
      a0:	4505                	li	a0,1
      a2:	00006097          	auipc	ra,0x6
      a6:	724080e7          	jalr	1828(ra) # 67c6 <exit>

00000000000000aa <opentest>:
{
      aa:	1101                	addi	sp,sp,-32
      ac:	ec06                	sd	ra,24(sp)
      ae:	e822                	sd	s0,16(sp)
      b0:	e426                	sd	s1,8(sp)
      b2:	1000                	addi	s0,sp,32
      b4:	84aa                	mv	s1,a0
  fd = open("echo", 0);
      b6:	4581                	li	a1,0
      b8:	00007517          	auipc	a0,0x7
      bc:	ca050513          	addi	a0,a0,-864 # 6d58 <malloc+0x13c>
      c0:	00006097          	auipc	ra,0x6
      c4:	746080e7          	jalr	1862(ra) # 6806 <open>
  if(fd < 0){
      c8:	02054663          	bltz	a0,f4 <opentest+0x4a>
  close(fd);
      cc:	00006097          	auipc	ra,0x6
      d0:	722080e7          	jalr	1826(ra) # 67ee <close>
  fd = open("doesnotexist", 0);
      d4:	4581                	li	a1,0
      d6:	00007517          	auipc	a0,0x7
      da:	ca250513          	addi	a0,a0,-862 # 6d78 <malloc+0x15c>
      de:	00006097          	auipc	ra,0x6
      e2:	728080e7          	jalr	1832(ra) # 6806 <open>
  if(fd >= 0){
      e6:	02055963          	bgez	a0,118 <opentest+0x6e>
}
      ea:	60e2                	ld	ra,24(sp)
      ec:	6442                	ld	s0,16(sp)
      ee:	64a2                	ld	s1,8(sp)
      f0:	6105                	addi	sp,sp,32
      f2:	8082                	ret
    printf("%s: open echo failed!\n", s);
      f4:	85a6                	mv	a1,s1
      f6:	00007517          	auipc	a0,0x7
      fa:	c6a50513          	addi	a0,a0,-918 # 6d60 <malloc+0x144>
      fe:	00007097          	auipc	ra,0x7
     102:	a60080e7          	jalr	-1440(ra) # 6b5e <printf>
    exit(1,"");
     106:	00008597          	auipc	a1,0x8
     10a:	24258593          	addi	a1,a1,578 # 8348 <malloc+0x172c>
     10e:	4505                	li	a0,1
     110:	00006097          	auipc	ra,0x6
     114:	6b6080e7          	jalr	1718(ra) # 67c6 <exit>
    printf("%s: open doesnotexist succeeded!\n", s);
     118:	85a6                	mv	a1,s1
     11a:	00007517          	auipc	a0,0x7
     11e:	c6e50513          	addi	a0,a0,-914 # 6d88 <malloc+0x16c>
     122:	00007097          	auipc	ra,0x7
     126:	a3c080e7          	jalr	-1476(ra) # 6b5e <printf>
    exit(1,"");
     12a:	00008597          	auipc	a1,0x8
     12e:	21e58593          	addi	a1,a1,542 # 8348 <malloc+0x172c>
     132:	4505                	li	a0,1
     134:	00006097          	auipc	ra,0x6
     138:	692080e7          	jalr	1682(ra) # 67c6 <exit>

000000000000013c <truncate2>:
{
     13c:	7179                	addi	sp,sp,-48
     13e:	f406                	sd	ra,40(sp)
     140:	f022                	sd	s0,32(sp)
     142:	ec26                	sd	s1,24(sp)
     144:	e84a                	sd	s2,16(sp)
     146:	e44e                	sd	s3,8(sp)
     148:	1800                	addi	s0,sp,48
     14a:	89aa                	mv	s3,a0
  unlink("truncfile");
     14c:	00007517          	auipc	a0,0x7
     150:	c6450513          	addi	a0,a0,-924 # 6db0 <malloc+0x194>
     154:	00006097          	auipc	ra,0x6
     158:	6c2080e7          	jalr	1730(ra) # 6816 <unlink>
  int fd1 = open("truncfile", O_CREATE|O_TRUNC|O_WRONLY);
     15c:	60100593          	li	a1,1537
     160:	00007517          	auipc	a0,0x7
     164:	c5050513          	addi	a0,a0,-944 # 6db0 <malloc+0x194>
     168:	00006097          	auipc	ra,0x6
     16c:	69e080e7          	jalr	1694(ra) # 6806 <open>
     170:	84aa                	mv	s1,a0
  write(fd1, "abcd", 4);
     172:	4611                	li	a2,4
     174:	00007597          	auipc	a1,0x7
     178:	c4c58593          	addi	a1,a1,-948 # 6dc0 <malloc+0x1a4>
     17c:	00006097          	auipc	ra,0x6
     180:	66a080e7          	jalr	1642(ra) # 67e6 <write>
  int fd2 = open("truncfile", O_TRUNC|O_WRONLY);
     184:	40100593          	li	a1,1025
     188:	00007517          	auipc	a0,0x7
     18c:	c2850513          	addi	a0,a0,-984 # 6db0 <malloc+0x194>
     190:	00006097          	auipc	ra,0x6
     194:	676080e7          	jalr	1654(ra) # 6806 <open>
     198:	892a                	mv	s2,a0
  int n = write(fd1, "x", 1);
     19a:	4605                	li	a2,1
     19c:	00007597          	auipc	a1,0x7
     1a0:	c2c58593          	addi	a1,a1,-980 # 6dc8 <malloc+0x1ac>
     1a4:	8526                	mv	a0,s1
     1a6:	00006097          	auipc	ra,0x6
     1aa:	640080e7          	jalr	1600(ra) # 67e6 <write>
  if(n != -1){
     1ae:	57fd                	li	a5,-1
     1b0:	02f51b63          	bne	a0,a5,1e6 <truncate2+0xaa>
  unlink("truncfile");
     1b4:	00007517          	auipc	a0,0x7
     1b8:	bfc50513          	addi	a0,a0,-1028 # 6db0 <malloc+0x194>
     1bc:	00006097          	auipc	ra,0x6
     1c0:	65a080e7          	jalr	1626(ra) # 6816 <unlink>
  close(fd1);
     1c4:	8526                	mv	a0,s1
     1c6:	00006097          	auipc	ra,0x6
     1ca:	628080e7          	jalr	1576(ra) # 67ee <close>
  close(fd2);
     1ce:	854a                	mv	a0,s2
     1d0:	00006097          	auipc	ra,0x6
     1d4:	61e080e7          	jalr	1566(ra) # 67ee <close>
}
     1d8:	70a2                	ld	ra,40(sp)
     1da:	7402                	ld	s0,32(sp)
     1dc:	64e2                	ld	s1,24(sp)
     1de:	6942                	ld	s2,16(sp)
     1e0:	69a2                	ld	s3,8(sp)
     1e2:	6145                	addi	sp,sp,48
     1e4:	8082                	ret
    printf("%s: write returned %d, expected -1\n", s, n);
     1e6:	862a                	mv	a2,a0
     1e8:	85ce                	mv	a1,s3
     1ea:	00007517          	auipc	a0,0x7
     1ee:	be650513          	addi	a0,a0,-1050 # 6dd0 <malloc+0x1b4>
     1f2:	00007097          	auipc	ra,0x7
     1f6:	96c080e7          	jalr	-1684(ra) # 6b5e <printf>
    exit(1,"");
     1fa:	00008597          	auipc	a1,0x8
     1fe:	14e58593          	addi	a1,a1,334 # 8348 <malloc+0x172c>
     202:	4505                	li	a0,1
     204:	00006097          	auipc	ra,0x6
     208:	5c2080e7          	jalr	1474(ra) # 67c6 <exit>

000000000000020c <createtest>:
{
     20c:	7179                	addi	sp,sp,-48
     20e:	f406                	sd	ra,40(sp)
     210:	f022                	sd	s0,32(sp)
     212:	ec26                	sd	s1,24(sp)
     214:	e84a                	sd	s2,16(sp)
     216:	1800                	addi	s0,sp,48
  name[0] = 'a';
     218:	06100793          	li	a5,97
     21c:	fcf40c23          	sb	a5,-40(s0)
  name[2] = '\0';
     220:	fc040d23          	sb	zero,-38(s0)
     224:	03000493          	li	s1,48
  for(i = 0; i < N; i++){
     228:	06400913          	li	s2,100
    name[1] = '0' + i;
     22c:	fc940ca3          	sb	s1,-39(s0)
    fd = open(name, O_CREATE|O_RDWR);
     230:	20200593          	li	a1,514
     234:	fd840513          	addi	a0,s0,-40
     238:	00006097          	auipc	ra,0x6
     23c:	5ce080e7          	jalr	1486(ra) # 6806 <open>
    close(fd);
     240:	00006097          	auipc	ra,0x6
     244:	5ae080e7          	jalr	1454(ra) # 67ee <close>
  for(i = 0; i < N; i++){
     248:	2485                	addiw	s1,s1,1
     24a:	0ff4f493          	andi	s1,s1,255
     24e:	fd249fe3          	bne	s1,s2,22c <createtest+0x20>
  name[0] = 'a';
     252:	06100793          	li	a5,97
     256:	fcf40c23          	sb	a5,-40(s0)
  name[2] = '\0';
     25a:	fc040d23          	sb	zero,-38(s0)
     25e:	03000493          	li	s1,48
  for(i = 0; i < N; i++){
     262:	06400913          	li	s2,100
    name[1] = '0' + i;
     266:	fc940ca3          	sb	s1,-39(s0)
    unlink(name);
     26a:	fd840513          	addi	a0,s0,-40
     26e:	00006097          	auipc	ra,0x6
     272:	5a8080e7          	jalr	1448(ra) # 6816 <unlink>
  for(i = 0; i < N; i++){
     276:	2485                	addiw	s1,s1,1
     278:	0ff4f493          	andi	s1,s1,255
     27c:	ff2495e3          	bne	s1,s2,266 <createtest+0x5a>
}
     280:	70a2                	ld	ra,40(sp)
     282:	7402                	ld	s0,32(sp)
     284:	64e2                	ld	s1,24(sp)
     286:	6942                	ld	s2,16(sp)
     288:	6145                	addi	sp,sp,48
     28a:	8082                	ret

000000000000028c <bigwrite>:
{
     28c:	715d                	addi	sp,sp,-80
     28e:	e486                	sd	ra,72(sp)
     290:	e0a2                	sd	s0,64(sp)
     292:	fc26                	sd	s1,56(sp)
     294:	f84a                	sd	s2,48(sp)
     296:	f44e                	sd	s3,40(sp)
     298:	f052                	sd	s4,32(sp)
     29a:	ec56                	sd	s5,24(sp)
     29c:	e85a                	sd	s6,16(sp)
     29e:	e45e                	sd	s7,8(sp)
     2a0:	0880                	addi	s0,sp,80
     2a2:	8baa                	mv	s7,a0
  unlink("bigwrite");
     2a4:	00007517          	auipc	a0,0x7
     2a8:	b5450513          	addi	a0,a0,-1196 # 6df8 <malloc+0x1dc>
     2ac:	00006097          	auipc	ra,0x6
     2b0:	56a080e7          	jalr	1386(ra) # 6816 <unlink>
  for(sz = 499; sz < (MAXOPBLOCKS+2)*BSIZE; sz += 471){
     2b4:	1f300493          	li	s1,499
    fd = open("bigwrite", O_CREATE | O_RDWR);
     2b8:	00007a97          	auipc	s5,0x7
     2bc:	b40a8a93          	addi	s5,s5,-1216 # 6df8 <malloc+0x1dc>
      int cc = write(fd, buf, sz);
     2c0:	0000ea17          	auipc	s4,0xe
     2c4:	9b8a0a13          	addi	s4,s4,-1608 # dc78 <buf>
  for(sz = 499; sz < (MAXOPBLOCKS+2)*BSIZE; sz += 471){
     2c8:	6b0d                	lui	s6,0x3
     2ca:	1c9b0b13          	addi	s6,s6,457 # 31c9 <sbrkmuch+0x18b>
    fd = open("bigwrite", O_CREATE | O_RDWR);
     2ce:	20200593          	li	a1,514
     2d2:	8556                	mv	a0,s5
     2d4:	00006097          	auipc	ra,0x6
     2d8:	532080e7          	jalr	1330(ra) # 6806 <open>
     2dc:	892a                	mv	s2,a0
    if(fd < 0){
     2de:	04054d63          	bltz	a0,338 <bigwrite+0xac>
      int cc = write(fd, buf, sz);
     2e2:	8626                	mv	a2,s1
     2e4:	85d2                	mv	a1,s4
     2e6:	00006097          	auipc	ra,0x6
     2ea:	500080e7          	jalr	1280(ra) # 67e6 <write>
     2ee:	89aa                	mv	s3,a0
      if(cc != sz){
     2f0:	06a49863          	bne	s1,a0,360 <bigwrite+0xd4>
      int cc = write(fd, buf, sz);
     2f4:	8626                	mv	a2,s1
     2f6:	85d2                	mv	a1,s4
     2f8:	854a                	mv	a0,s2
     2fa:	00006097          	auipc	ra,0x6
     2fe:	4ec080e7          	jalr	1260(ra) # 67e6 <write>
      if(cc != sz){
     302:	04951d63          	bne	a0,s1,35c <bigwrite+0xd0>
    close(fd);
     306:	854a                	mv	a0,s2
     308:	00006097          	auipc	ra,0x6
     30c:	4e6080e7          	jalr	1254(ra) # 67ee <close>
    unlink("bigwrite");
     310:	8556                	mv	a0,s5
     312:	00006097          	auipc	ra,0x6
     316:	504080e7          	jalr	1284(ra) # 6816 <unlink>
  for(sz = 499; sz < (MAXOPBLOCKS+2)*BSIZE; sz += 471){
     31a:	1d74849b          	addiw	s1,s1,471
     31e:	fb6498e3          	bne	s1,s6,2ce <bigwrite+0x42>
}
     322:	60a6                	ld	ra,72(sp)
     324:	6406                	ld	s0,64(sp)
     326:	74e2                	ld	s1,56(sp)
     328:	7942                	ld	s2,48(sp)
     32a:	79a2                	ld	s3,40(sp)
     32c:	7a02                	ld	s4,32(sp)
     32e:	6ae2                	ld	s5,24(sp)
     330:	6b42                	ld	s6,16(sp)
     332:	6ba2                	ld	s7,8(sp)
     334:	6161                	addi	sp,sp,80
     336:	8082                	ret
      printf("%s: cannot create bigwrite\n", s);
     338:	85de                	mv	a1,s7
     33a:	00007517          	auipc	a0,0x7
     33e:	ace50513          	addi	a0,a0,-1330 # 6e08 <malloc+0x1ec>
     342:	00007097          	auipc	ra,0x7
     346:	81c080e7          	jalr	-2020(ra) # 6b5e <printf>
      exit(1,"");
     34a:	00008597          	auipc	a1,0x8
     34e:	ffe58593          	addi	a1,a1,-2 # 8348 <malloc+0x172c>
     352:	4505                	li	a0,1
     354:	00006097          	auipc	ra,0x6
     358:	472080e7          	jalr	1138(ra) # 67c6 <exit>
     35c:	84ce                	mv	s1,s3
      int cc = write(fd, buf, sz);
     35e:	89aa                	mv	s3,a0
        printf("%s: write(%d) ret %d\n", s, sz, cc);
     360:	86ce                	mv	a3,s3
     362:	8626                	mv	a2,s1
     364:	85de                	mv	a1,s7
     366:	00007517          	auipc	a0,0x7
     36a:	ac250513          	addi	a0,a0,-1342 # 6e28 <malloc+0x20c>
     36e:	00006097          	auipc	ra,0x6
     372:	7f0080e7          	jalr	2032(ra) # 6b5e <printf>
        exit(1,"");
     376:	00008597          	auipc	a1,0x8
     37a:	fd258593          	addi	a1,a1,-46 # 8348 <malloc+0x172c>
     37e:	4505                	li	a0,1
     380:	00006097          	auipc	ra,0x6
     384:	446080e7          	jalr	1094(ra) # 67c6 <exit>

0000000000000388 <badwrite>:
// file is deleted? if the kernel has this bug, it will panic: balloc:
// out of blocks. assumed_free may need to be raised to be more than
// the number of free blocks. this test takes a long time.
void
badwrite(char *s)
{
     388:	7179                	addi	sp,sp,-48
     38a:	f406                	sd	ra,40(sp)
     38c:	f022                	sd	s0,32(sp)
     38e:	ec26                	sd	s1,24(sp)
     390:	e84a                	sd	s2,16(sp)
     392:	e44e                	sd	s3,8(sp)
     394:	e052                	sd	s4,0(sp)
     396:	1800                	addi	s0,sp,48
  int assumed_free = 600;
  
  unlink("junk");
     398:	00007517          	auipc	a0,0x7
     39c:	aa850513          	addi	a0,a0,-1368 # 6e40 <malloc+0x224>
     3a0:	00006097          	auipc	ra,0x6
     3a4:	476080e7          	jalr	1142(ra) # 6816 <unlink>
     3a8:	25800913          	li	s2,600
  for(int i = 0; i < assumed_free; i++){
    int fd = open("junk", O_CREATE|O_WRONLY);
     3ac:	00007997          	auipc	s3,0x7
     3b0:	a9498993          	addi	s3,s3,-1388 # 6e40 <malloc+0x224>
    if(fd < 0){
      printf("open junk failed\n");
      exit(1,"");
    }
    write(fd, (char*)0xffffffffffL, 1);
     3b4:	5a7d                	li	s4,-1
     3b6:	018a5a13          	srli	s4,s4,0x18
    int fd = open("junk", O_CREATE|O_WRONLY);
     3ba:	20100593          	li	a1,513
     3be:	854e                	mv	a0,s3
     3c0:	00006097          	auipc	ra,0x6
     3c4:	446080e7          	jalr	1094(ra) # 6806 <open>
     3c8:	84aa                	mv	s1,a0
    if(fd < 0){
     3ca:	06054f63          	bltz	a0,448 <badwrite+0xc0>
    write(fd, (char*)0xffffffffffL, 1);
     3ce:	4605                	li	a2,1
     3d0:	85d2                	mv	a1,s4
     3d2:	00006097          	auipc	ra,0x6
     3d6:	414080e7          	jalr	1044(ra) # 67e6 <write>
    close(fd);
     3da:	8526                	mv	a0,s1
     3dc:	00006097          	auipc	ra,0x6
     3e0:	412080e7          	jalr	1042(ra) # 67ee <close>
    unlink("junk");
     3e4:	854e                	mv	a0,s3
     3e6:	00006097          	auipc	ra,0x6
     3ea:	430080e7          	jalr	1072(ra) # 6816 <unlink>
  for(int i = 0; i < assumed_free; i++){
     3ee:	397d                	addiw	s2,s2,-1
     3f0:	fc0915e3          	bnez	s2,3ba <badwrite+0x32>
  }

  int fd = open("junk", O_CREATE|O_WRONLY);
     3f4:	20100593          	li	a1,513
     3f8:	00007517          	auipc	a0,0x7
     3fc:	a4850513          	addi	a0,a0,-1464 # 6e40 <malloc+0x224>
     400:	00006097          	auipc	ra,0x6
     404:	406080e7          	jalr	1030(ra) # 6806 <open>
     408:	84aa                	mv	s1,a0
  if(fd < 0){
     40a:	06054063          	bltz	a0,46a <badwrite+0xe2>
    printf("open junk failed\n");
    exit(1,"");
  }
  if(write(fd, "x", 1) != 1){
     40e:	4605                	li	a2,1
     410:	00007597          	auipc	a1,0x7
     414:	9b858593          	addi	a1,a1,-1608 # 6dc8 <malloc+0x1ac>
     418:	00006097          	auipc	ra,0x6
     41c:	3ce080e7          	jalr	974(ra) # 67e6 <write>
     420:	4785                	li	a5,1
     422:	06f50563          	beq	a0,a5,48c <badwrite+0x104>
    printf("write failed\n");
     426:	00007517          	auipc	a0,0x7
     42a:	a3a50513          	addi	a0,a0,-1478 # 6e60 <malloc+0x244>
     42e:	00006097          	auipc	ra,0x6
     432:	730080e7          	jalr	1840(ra) # 6b5e <printf>
    exit(1,"");
     436:	00008597          	auipc	a1,0x8
     43a:	f1258593          	addi	a1,a1,-238 # 8348 <malloc+0x172c>
     43e:	4505                	li	a0,1
     440:	00006097          	auipc	ra,0x6
     444:	386080e7          	jalr	902(ra) # 67c6 <exit>
      printf("open junk failed\n");
     448:	00007517          	auipc	a0,0x7
     44c:	a0050513          	addi	a0,a0,-1536 # 6e48 <malloc+0x22c>
     450:	00006097          	auipc	ra,0x6
     454:	70e080e7          	jalr	1806(ra) # 6b5e <printf>
      exit(1,"");
     458:	00008597          	auipc	a1,0x8
     45c:	ef058593          	addi	a1,a1,-272 # 8348 <malloc+0x172c>
     460:	4505                	li	a0,1
     462:	00006097          	auipc	ra,0x6
     466:	364080e7          	jalr	868(ra) # 67c6 <exit>
    printf("open junk failed\n");
     46a:	00007517          	auipc	a0,0x7
     46e:	9de50513          	addi	a0,a0,-1570 # 6e48 <malloc+0x22c>
     472:	00006097          	auipc	ra,0x6
     476:	6ec080e7          	jalr	1772(ra) # 6b5e <printf>
    exit(1,"");
     47a:	00008597          	auipc	a1,0x8
     47e:	ece58593          	addi	a1,a1,-306 # 8348 <malloc+0x172c>
     482:	4505                	li	a0,1
     484:	00006097          	auipc	ra,0x6
     488:	342080e7          	jalr	834(ra) # 67c6 <exit>
  }
  close(fd);
     48c:	8526                	mv	a0,s1
     48e:	00006097          	auipc	ra,0x6
     492:	360080e7          	jalr	864(ra) # 67ee <close>
  unlink("junk");
     496:	00007517          	auipc	a0,0x7
     49a:	9aa50513          	addi	a0,a0,-1622 # 6e40 <malloc+0x224>
     49e:	00006097          	auipc	ra,0x6
     4a2:	378080e7          	jalr	888(ra) # 6816 <unlink>

  exit(0,"");
     4a6:	00008597          	auipc	a1,0x8
     4aa:	ea258593          	addi	a1,a1,-350 # 8348 <malloc+0x172c>
     4ae:	4501                	li	a0,0
     4b0:	00006097          	auipc	ra,0x6
     4b4:	316080e7          	jalr	790(ra) # 67c6 <exit>

00000000000004b8 <outofinodes>:
  }
}

void
outofinodes(char *s)
{
     4b8:	715d                	addi	sp,sp,-80
     4ba:	e486                	sd	ra,72(sp)
     4bc:	e0a2                	sd	s0,64(sp)
     4be:	fc26                	sd	s1,56(sp)
     4c0:	f84a                	sd	s2,48(sp)
     4c2:	f44e                	sd	s3,40(sp)
     4c4:	0880                	addi	s0,sp,80
  int nzz = 32*32;
  for(int i = 0; i < nzz; i++){
     4c6:	4481                	li	s1,0
    char name[32];
    name[0] = 'z';
     4c8:	07a00913          	li	s2,122
  for(int i = 0; i < nzz; i++){
     4cc:	40000993          	li	s3,1024
    name[0] = 'z';
     4d0:	fb240823          	sb	s2,-80(s0)
    name[1] = 'z';
     4d4:	fb2408a3          	sb	s2,-79(s0)
    name[2] = '0' + (i / 32);
     4d8:	41f4d79b          	sraiw	a5,s1,0x1f
     4dc:	01b7d71b          	srliw	a4,a5,0x1b
     4e0:	009707bb          	addw	a5,a4,s1
     4e4:	4057d69b          	sraiw	a3,a5,0x5
     4e8:	0306869b          	addiw	a3,a3,48
     4ec:	fad40923          	sb	a3,-78(s0)
    name[3] = '0' + (i % 32);
     4f0:	8bfd                	andi	a5,a5,31
     4f2:	9f99                	subw	a5,a5,a4
     4f4:	0307879b          	addiw	a5,a5,48
     4f8:	faf409a3          	sb	a5,-77(s0)
    name[4] = '\0';
     4fc:	fa040a23          	sb	zero,-76(s0)
    unlink(name);
     500:	fb040513          	addi	a0,s0,-80
     504:	00006097          	auipc	ra,0x6
     508:	312080e7          	jalr	786(ra) # 6816 <unlink>
    int fd = open(name, O_CREATE|O_RDWR|O_TRUNC);
     50c:	60200593          	li	a1,1538
     510:	fb040513          	addi	a0,s0,-80
     514:	00006097          	auipc	ra,0x6
     518:	2f2080e7          	jalr	754(ra) # 6806 <open>
    if(fd < 0){
     51c:	00054963          	bltz	a0,52e <outofinodes+0x76>
      // failure is eventually expected.
      break;
    }
    close(fd);
     520:	00006097          	auipc	ra,0x6
     524:	2ce080e7          	jalr	718(ra) # 67ee <close>
  for(int i = 0; i < nzz; i++){
     528:	2485                	addiw	s1,s1,1
     52a:	fb3493e3          	bne	s1,s3,4d0 <outofinodes+0x18>
     52e:	4481                	li	s1,0
  }

  for(int i = 0; i < nzz; i++){
    char name[32];
    name[0] = 'z';
     530:	07a00913          	li	s2,122
  for(int i = 0; i < nzz; i++){
     534:	40000993          	li	s3,1024
    name[0] = 'z';
     538:	fb240823          	sb	s2,-80(s0)
    name[1] = 'z';
     53c:	fb2408a3          	sb	s2,-79(s0)
    name[2] = '0' + (i / 32);
     540:	41f4d79b          	sraiw	a5,s1,0x1f
     544:	01b7d71b          	srliw	a4,a5,0x1b
     548:	009707bb          	addw	a5,a4,s1
     54c:	4057d69b          	sraiw	a3,a5,0x5
     550:	0306869b          	addiw	a3,a3,48
     554:	fad40923          	sb	a3,-78(s0)
    name[3] = '0' + (i % 32);
     558:	8bfd                	andi	a5,a5,31
     55a:	9f99                	subw	a5,a5,a4
     55c:	0307879b          	addiw	a5,a5,48
     560:	faf409a3          	sb	a5,-77(s0)
    name[4] = '\0';
     564:	fa040a23          	sb	zero,-76(s0)
    unlink(name);
     568:	fb040513          	addi	a0,s0,-80
     56c:	00006097          	auipc	ra,0x6
     570:	2aa080e7          	jalr	682(ra) # 6816 <unlink>
  for(int i = 0; i < nzz; i++){
     574:	2485                	addiw	s1,s1,1
     576:	fd3491e3          	bne	s1,s3,538 <outofinodes+0x80>
  }
}
     57a:	60a6                	ld	ra,72(sp)
     57c:	6406                	ld	s0,64(sp)
     57e:	74e2                	ld	s1,56(sp)
     580:	7942                	ld	s2,48(sp)
     582:	79a2                	ld	s3,40(sp)
     584:	6161                	addi	sp,sp,80
     586:	8082                	ret

0000000000000588 <copyin>:
{
     588:	715d                	addi	sp,sp,-80
     58a:	e486                	sd	ra,72(sp)
     58c:	e0a2                	sd	s0,64(sp)
     58e:	fc26                	sd	s1,56(sp)
     590:	f84a                	sd	s2,48(sp)
     592:	f44e                	sd	s3,40(sp)
     594:	f052                	sd	s4,32(sp)
     596:	0880                	addi	s0,sp,80
  uint64 addrs[] = { 0x80000000LL, 0xffffffffffffffff };
     598:	4785                	li	a5,1
     59a:	07fe                	slli	a5,a5,0x1f
     59c:	fcf43023          	sd	a5,-64(s0)
     5a0:	57fd                	li	a5,-1
     5a2:	fcf43423          	sd	a5,-56(s0)
  for(int ai = 0; ai < 2; ai++){
     5a6:	fc040913          	addi	s2,s0,-64
    int fd = open("copyin1", O_CREATE|O_WRONLY);
     5aa:	00007a17          	auipc	s4,0x7
     5ae:	8c6a0a13          	addi	s4,s4,-1850 # 6e70 <malloc+0x254>
    uint64 addr = addrs[ai];
     5b2:	00093983          	ld	s3,0(s2)
    int fd = open("copyin1", O_CREATE|O_WRONLY);
     5b6:	20100593          	li	a1,513
     5ba:	8552                	mv	a0,s4
     5bc:	00006097          	auipc	ra,0x6
     5c0:	24a080e7          	jalr	586(ra) # 6806 <open>
     5c4:	84aa                	mv	s1,a0
    if(fd < 0){
     5c6:	08054863          	bltz	a0,656 <copyin+0xce>
    int n = write(fd, (void*)addr, 8192);
     5ca:	6609                	lui	a2,0x2
     5cc:	85ce                	mv	a1,s3
     5ce:	00006097          	auipc	ra,0x6
     5d2:	218080e7          	jalr	536(ra) # 67e6 <write>
    if(n >= 0){
     5d6:	0a055163          	bgez	a0,678 <copyin+0xf0>
    close(fd);
     5da:	8526                	mv	a0,s1
     5dc:	00006097          	auipc	ra,0x6
     5e0:	212080e7          	jalr	530(ra) # 67ee <close>
    unlink("copyin1");
     5e4:	8552                	mv	a0,s4
     5e6:	00006097          	auipc	ra,0x6
     5ea:	230080e7          	jalr	560(ra) # 6816 <unlink>
    n = write(1, (char*)addr, 8192);
     5ee:	6609                	lui	a2,0x2
     5f0:	85ce                	mv	a1,s3
     5f2:	4505                	li	a0,1
     5f4:	00006097          	auipc	ra,0x6
     5f8:	1f2080e7          	jalr	498(ra) # 67e6 <write>
    if(n > 0){
     5fc:	0aa04163          	bgtz	a0,69e <copyin+0x116>
    if(pipe(fds) < 0){
     600:	fb840513          	addi	a0,s0,-72
     604:	00006097          	auipc	ra,0x6
     608:	1d2080e7          	jalr	466(ra) # 67d6 <pipe>
     60c:	0a054c63          	bltz	a0,6c4 <copyin+0x13c>
    n = write(fds[1], (char*)addr, 8192);
     610:	6609                	lui	a2,0x2
     612:	85ce                	mv	a1,s3
     614:	fbc42503          	lw	a0,-68(s0)
     618:	00006097          	auipc	ra,0x6
     61c:	1ce080e7          	jalr	462(ra) # 67e6 <write>
    if(n > 0){
     620:	0ca04363          	bgtz	a0,6e6 <copyin+0x15e>
    close(fds[0]);
     624:	fb842503          	lw	a0,-72(s0)
     628:	00006097          	auipc	ra,0x6
     62c:	1c6080e7          	jalr	454(ra) # 67ee <close>
    close(fds[1]);
     630:	fbc42503          	lw	a0,-68(s0)
     634:	00006097          	auipc	ra,0x6
     638:	1ba080e7          	jalr	442(ra) # 67ee <close>
  for(int ai = 0; ai < 2; ai++){
     63c:	0921                	addi	s2,s2,8
     63e:	fd040793          	addi	a5,s0,-48
     642:	f6f918e3          	bne	s2,a5,5b2 <copyin+0x2a>
}
     646:	60a6                	ld	ra,72(sp)
     648:	6406                	ld	s0,64(sp)
     64a:	74e2                	ld	s1,56(sp)
     64c:	7942                	ld	s2,48(sp)
     64e:	79a2                	ld	s3,40(sp)
     650:	7a02                	ld	s4,32(sp)
     652:	6161                	addi	sp,sp,80
     654:	8082                	ret
      printf("open(copyin1) failed\n");
     656:	00007517          	auipc	a0,0x7
     65a:	82250513          	addi	a0,a0,-2014 # 6e78 <malloc+0x25c>
     65e:	00006097          	auipc	ra,0x6
     662:	500080e7          	jalr	1280(ra) # 6b5e <printf>
      exit(1,"");
     666:	00008597          	auipc	a1,0x8
     66a:	ce258593          	addi	a1,a1,-798 # 8348 <malloc+0x172c>
     66e:	4505                	li	a0,1
     670:	00006097          	auipc	ra,0x6
     674:	156080e7          	jalr	342(ra) # 67c6 <exit>
      printf("write(fd, %p, 8192) returned %d, not -1\n", addr, n);
     678:	862a                	mv	a2,a0
     67a:	85ce                	mv	a1,s3
     67c:	00007517          	auipc	a0,0x7
     680:	81450513          	addi	a0,a0,-2028 # 6e90 <malloc+0x274>
     684:	00006097          	auipc	ra,0x6
     688:	4da080e7          	jalr	1242(ra) # 6b5e <printf>
      exit(1,"");
     68c:	00008597          	auipc	a1,0x8
     690:	cbc58593          	addi	a1,a1,-836 # 8348 <malloc+0x172c>
     694:	4505                	li	a0,1
     696:	00006097          	auipc	ra,0x6
     69a:	130080e7          	jalr	304(ra) # 67c6 <exit>
      printf("write(1, %p, 8192) returned %d, not -1 or 0\n", addr, n);
     69e:	862a                	mv	a2,a0
     6a0:	85ce                	mv	a1,s3
     6a2:	00007517          	auipc	a0,0x7
     6a6:	81e50513          	addi	a0,a0,-2018 # 6ec0 <malloc+0x2a4>
     6aa:	00006097          	auipc	ra,0x6
     6ae:	4b4080e7          	jalr	1204(ra) # 6b5e <printf>
      exit(1,"");
     6b2:	00008597          	auipc	a1,0x8
     6b6:	c9658593          	addi	a1,a1,-874 # 8348 <malloc+0x172c>
     6ba:	4505                	li	a0,1
     6bc:	00006097          	auipc	ra,0x6
     6c0:	10a080e7          	jalr	266(ra) # 67c6 <exit>
      printf("pipe() failed\n");
     6c4:	00007517          	auipc	a0,0x7
     6c8:	82c50513          	addi	a0,a0,-2004 # 6ef0 <malloc+0x2d4>
     6cc:	00006097          	auipc	ra,0x6
     6d0:	492080e7          	jalr	1170(ra) # 6b5e <printf>
      exit(1,"");
     6d4:	00008597          	auipc	a1,0x8
     6d8:	c7458593          	addi	a1,a1,-908 # 8348 <malloc+0x172c>
     6dc:	4505                	li	a0,1
     6de:	00006097          	auipc	ra,0x6
     6e2:	0e8080e7          	jalr	232(ra) # 67c6 <exit>
      printf("write(pipe, %p, 8192) returned %d, not -1 or 0\n", addr, n);
     6e6:	862a                	mv	a2,a0
     6e8:	85ce                	mv	a1,s3
     6ea:	00007517          	auipc	a0,0x7
     6ee:	81650513          	addi	a0,a0,-2026 # 6f00 <malloc+0x2e4>
     6f2:	00006097          	auipc	ra,0x6
     6f6:	46c080e7          	jalr	1132(ra) # 6b5e <printf>
      exit(1,"");
     6fa:	00008597          	auipc	a1,0x8
     6fe:	c4e58593          	addi	a1,a1,-946 # 8348 <malloc+0x172c>
     702:	4505                	li	a0,1
     704:	00006097          	auipc	ra,0x6
     708:	0c2080e7          	jalr	194(ra) # 67c6 <exit>

000000000000070c <copyout>:
{
     70c:	711d                	addi	sp,sp,-96
     70e:	ec86                	sd	ra,88(sp)
     710:	e8a2                	sd	s0,80(sp)
     712:	e4a6                	sd	s1,72(sp)
     714:	e0ca                	sd	s2,64(sp)
     716:	fc4e                	sd	s3,56(sp)
     718:	f852                	sd	s4,48(sp)
     71a:	f456                	sd	s5,40(sp)
     71c:	1080                	addi	s0,sp,96
  uint64 addrs[] = { 0x80000000LL, 0xffffffffffffffff };
     71e:	4785                	li	a5,1
     720:	07fe                	slli	a5,a5,0x1f
     722:	faf43823          	sd	a5,-80(s0)
     726:	57fd                	li	a5,-1
     728:	faf43c23          	sd	a5,-72(s0)
  for(int ai = 0; ai < 2; ai++){
     72c:	fb040913          	addi	s2,s0,-80
    int fd = open("README", 0);
     730:	00007a17          	auipc	s4,0x7
     734:	800a0a13          	addi	s4,s4,-2048 # 6f30 <malloc+0x314>
    n = write(fds[1], "x", 1);
     738:	00006a97          	auipc	s5,0x6
     73c:	690a8a93          	addi	s5,s5,1680 # 6dc8 <malloc+0x1ac>
    uint64 addr = addrs[ai];
     740:	00093983          	ld	s3,0(s2)
    int fd = open("README", 0);
     744:	4581                	li	a1,0
     746:	8552                	mv	a0,s4
     748:	00006097          	auipc	ra,0x6
     74c:	0be080e7          	jalr	190(ra) # 6806 <open>
     750:	84aa                	mv	s1,a0
    if(fd < 0){
     752:	08054663          	bltz	a0,7de <copyout+0xd2>
    int n = read(fd, (void*)addr, 8192);
     756:	6609                	lui	a2,0x2
     758:	85ce                	mv	a1,s3
     75a:	00006097          	auipc	ra,0x6
     75e:	084080e7          	jalr	132(ra) # 67de <read>
    if(n > 0){
     762:	08a04f63          	bgtz	a0,800 <copyout+0xf4>
    close(fd);
     766:	8526                	mv	a0,s1
     768:	00006097          	auipc	ra,0x6
     76c:	086080e7          	jalr	134(ra) # 67ee <close>
    if(pipe(fds) < 0){
     770:	fa840513          	addi	a0,s0,-88
     774:	00006097          	auipc	ra,0x6
     778:	062080e7          	jalr	98(ra) # 67d6 <pipe>
     77c:	0a054563          	bltz	a0,826 <copyout+0x11a>
    n = write(fds[1], "x", 1);
     780:	4605                	li	a2,1
     782:	85d6                	mv	a1,s5
     784:	fac42503          	lw	a0,-84(s0)
     788:	00006097          	auipc	ra,0x6
     78c:	05e080e7          	jalr	94(ra) # 67e6 <write>
    if(n != 1){
     790:	4785                	li	a5,1
     792:	0af51b63          	bne	a0,a5,848 <copyout+0x13c>
    n = read(fds[0], (void*)addr, 8192);
     796:	6609                	lui	a2,0x2
     798:	85ce                	mv	a1,s3
     79a:	fa842503          	lw	a0,-88(s0)
     79e:	00006097          	auipc	ra,0x6
     7a2:	040080e7          	jalr	64(ra) # 67de <read>
    if(n > 0){
     7a6:	0ca04263          	bgtz	a0,86a <copyout+0x15e>
    close(fds[0]);
     7aa:	fa842503          	lw	a0,-88(s0)
     7ae:	00006097          	auipc	ra,0x6
     7b2:	040080e7          	jalr	64(ra) # 67ee <close>
    close(fds[1]);
     7b6:	fac42503          	lw	a0,-84(s0)
     7ba:	00006097          	auipc	ra,0x6
     7be:	034080e7          	jalr	52(ra) # 67ee <close>
  for(int ai = 0; ai < 2; ai++){
     7c2:	0921                	addi	s2,s2,8
     7c4:	fc040793          	addi	a5,s0,-64
     7c8:	f6f91ce3          	bne	s2,a5,740 <copyout+0x34>
}
     7cc:	60e6                	ld	ra,88(sp)
     7ce:	6446                	ld	s0,80(sp)
     7d0:	64a6                	ld	s1,72(sp)
     7d2:	6906                	ld	s2,64(sp)
     7d4:	79e2                	ld	s3,56(sp)
     7d6:	7a42                	ld	s4,48(sp)
     7d8:	7aa2                	ld	s5,40(sp)
     7da:	6125                	addi	sp,sp,96
     7dc:	8082                	ret
      printf("open(README) failed\n");
     7de:	00006517          	auipc	a0,0x6
     7e2:	75a50513          	addi	a0,a0,1882 # 6f38 <malloc+0x31c>
     7e6:	00006097          	auipc	ra,0x6
     7ea:	378080e7          	jalr	888(ra) # 6b5e <printf>
      exit(1,"");
     7ee:	00008597          	auipc	a1,0x8
     7f2:	b5a58593          	addi	a1,a1,-1190 # 8348 <malloc+0x172c>
     7f6:	4505                	li	a0,1
     7f8:	00006097          	auipc	ra,0x6
     7fc:	fce080e7          	jalr	-50(ra) # 67c6 <exit>
      printf("read(fd, %p, 8192) returned %d, not -1 or 0\n", addr, n);
     800:	862a                	mv	a2,a0
     802:	85ce                	mv	a1,s3
     804:	00006517          	auipc	a0,0x6
     808:	74c50513          	addi	a0,a0,1868 # 6f50 <malloc+0x334>
     80c:	00006097          	auipc	ra,0x6
     810:	352080e7          	jalr	850(ra) # 6b5e <printf>
      exit(1,"");
     814:	00008597          	auipc	a1,0x8
     818:	b3458593          	addi	a1,a1,-1228 # 8348 <malloc+0x172c>
     81c:	4505                	li	a0,1
     81e:	00006097          	auipc	ra,0x6
     822:	fa8080e7          	jalr	-88(ra) # 67c6 <exit>
      printf("pipe() failed\n");
     826:	00006517          	auipc	a0,0x6
     82a:	6ca50513          	addi	a0,a0,1738 # 6ef0 <malloc+0x2d4>
     82e:	00006097          	auipc	ra,0x6
     832:	330080e7          	jalr	816(ra) # 6b5e <printf>
      exit(1,"");
     836:	00008597          	auipc	a1,0x8
     83a:	b1258593          	addi	a1,a1,-1262 # 8348 <malloc+0x172c>
     83e:	4505                	li	a0,1
     840:	00006097          	auipc	ra,0x6
     844:	f86080e7          	jalr	-122(ra) # 67c6 <exit>
      printf("pipe write failed\n");
     848:	00006517          	auipc	a0,0x6
     84c:	73850513          	addi	a0,a0,1848 # 6f80 <malloc+0x364>
     850:	00006097          	auipc	ra,0x6
     854:	30e080e7          	jalr	782(ra) # 6b5e <printf>
      exit(1,"");
     858:	00008597          	auipc	a1,0x8
     85c:	af058593          	addi	a1,a1,-1296 # 8348 <malloc+0x172c>
     860:	4505                	li	a0,1
     862:	00006097          	auipc	ra,0x6
     866:	f64080e7          	jalr	-156(ra) # 67c6 <exit>
      printf("read(pipe, %p, 8192) returned %d, not -1 or 0\n", addr, n);
     86a:	862a                	mv	a2,a0
     86c:	85ce                	mv	a1,s3
     86e:	00006517          	auipc	a0,0x6
     872:	72a50513          	addi	a0,a0,1834 # 6f98 <malloc+0x37c>
     876:	00006097          	auipc	ra,0x6
     87a:	2e8080e7          	jalr	744(ra) # 6b5e <printf>
      exit(1,"");
     87e:	00008597          	auipc	a1,0x8
     882:	aca58593          	addi	a1,a1,-1334 # 8348 <malloc+0x172c>
     886:	4505                	li	a0,1
     888:	00006097          	auipc	ra,0x6
     88c:	f3e080e7          	jalr	-194(ra) # 67c6 <exit>

0000000000000890 <truncate1>:
{
     890:	711d                	addi	sp,sp,-96
     892:	ec86                	sd	ra,88(sp)
     894:	e8a2                	sd	s0,80(sp)
     896:	e4a6                	sd	s1,72(sp)
     898:	e0ca                	sd	s2,64(sp)
     89a:	fc4e                	sd	s3,56(sp)
     89c:	f852                	sd	s4,48(sp)
     89e:	f456                	sd	s5,40(sp)
     8a0:	1080                	addi	s0,sp,96
     8a2:	8aaa                	mv	s5,a0
  unlink("truncfile");
     8a4:	00006517          	auipc	a0,0x6
     8a8:	50c50513          	addi	a0,a0,1292 # 6db0 <malloc+0x194>
     8ac:	00006097          	auipc	ra,0x6
     8b0:	f6a080e7          	jalr	-150(ra) # 6816 <unlink>
  int fd1 = open("truncfile", O_CREATE|O_WRONLY|O_TRUNC);
     8b4:	60100593          	li	a1,1537
     8b8:	00006517          	auipc	a0,0x6
     8bc:	4f850513          	addi	a0,a0,1272 # 6db0 <malloc+0x194>
     8c0:	00006097          	auipc	ra,0x6
     8c4:	f46080e7          	jalr	-186(ra) # 6806 <open>
     8c8:	84aa                	mv	s1,a0
  write(fd1, "abcd", 4);
     8ca:	4611                	li	a2,4
     8cc:	00006597          	auipc	a1,0x6
     8d0:	4f458593          	addi	a1,a1,1268 # 6dc0 <malloc+0x1a4>
     8d4:	00006097          	auipc	ra,0x6
     8d8:	f12080e7          	jalr	-238(ra) # 67e6 <write>
  close(fd1);
     8dc:	8526                	mv	a0,s1
     8de:	00006097          	auipc	ra,0x6
     8e2:	f10080e7          	jalr	-240(ra) # 67ee <close>
  int fd2 = open("truncfile", O_RDONLY);
     8e6:	4581                	li	a1,0
     8e8:	00006517          	auipc	a0,0x6
     8ec:	4c850513          	addi	a0,a0,1224 # 6db0 <malloc+0x194>
     8f0:	00006097          	auipc	ra,0x6
     8f4:	f16080e7          	jalr	-234(ra) # 6806 <open>
     8f8:	84aa                	mv	s1,a0
  int n = read(fd2, buf, sizeof(buf));
     8fa:	02000613          	li	a2,32
     8fe:	fa040593          	addi	a1,s0,-96
     902:	00006097          	auipc	ra,0x6
     906:	edc080e7          	jalr	-292(ra) # 67de <read>
  if(n != 4){
     90a:	4791                	li	a5,4
     90c:	0cf51e63          	bne	a0,a5,9e8 <truncate1+0x158>
  fd1 = open("truncfile", O_WRONLY|O_TRUNC);
     910:	40100593          	li	a1,1025
     914:	00006517          	auipc	a0,0x6
     918:	49c50513          	addi	a0,a0,1180 # 6db0 <malloc+0x194>
     91c:	00006097          	auipc	ra,0x6
     920:	eea080e7          	jalr	-278(ra) # 6806 <open>
     924:	89aa                	mv	s3,a0
  int fd3 = open("truncfile", O_RDONLY);
     926:	4581                	li	a1,0
     928:	00006517          	auipc	a0,0x6
     92c:	48850513          	addi	a0,a0,1160 # 6db0 <malloc+0x194>
     930:	00006097          	auipc	ra,0x6
     934:	ed6080e7          	jalr	-298(ra) # 6806 <open>
     938:	892a                	mv	s2,a0
  n = read(fd3, buf, sizeof(buf));
     93a:	02000613          	li	a2,32
     93e:	fa040593          	addi	a1,s0,-96
     942:	00006097          	auipc	ra,0x6
     946:	e9c080e7          	jalr	-356(ra) # 67de <read>
     94a:	8a2a                	mv	s4,a0
  if(n != 0){
     94c:	e169                	bnez	a0,a0e <truncate1+0x17e>
  n = read(fd2, buf, sizeof(buf));
     94e:	02000613          	li	a2,32
     952:	fa040593          	addi	a1,s0,-96
     956:	8526                	mv	a0,s1
     958:	00006097          	auipc	ra,0x6
     95c:	e86080e7          	jalr	-378(ra) # 67de <read>
     960:	8a2a                	mv	s4,a0
  if(n != 0){
     962:	e175                	bnez	a0,a46 <truncate1+0x1b6>
  write(fd1, "abcdef", 6);
     964:	4619                	li	a2,6
     966:	00006597          	auipc	a1,0x6
     96a:	6c258593          	addi	a1,a1,1730 # 7028 <malloc+0x40c>
     96e:	854e                	mv	a0,s3
     970:	00006097          	auipc	ra,0x6
     974:	e76080e7          	jalr	-394(ra) # 67e6 <write>
  n = read(fd3, buf, sizeof(buf));
     978:	02000613          	li	a2,32
     97c:	fa040593          	addi	a1,s0,-96
     980:	854a                	mv	a0,s2
     982:	00006097          	auipc	ra,0x6
     986:	e5c080e7          	jalr	-420(ra) # 67de <read>
  if(n != 6){
     98a:	4799                	li	a5,6
     98c:	0ef51963          	bne	a0,a5,a7e <truncate1+0x1ee>
  n = read(fd2, buf, sizeof(buf));
     990:	02000613          	li	a2,32
     994:	fa040593          	addi	a1,s0,-96
     998:	8526                	mv	a0,s1
     99a:	00006097          	auipc	ra,0x6
     99e:	e44080e7          	jalr	-444(ra) # 67de <read>
  if(n != 2){
     9a2:	4789                	li	a5,2
     9a4:	10f51063          	bne	a0,a5,aa4 <truncate1+0x214>
  unlink("truncfile");
     9a8:	00006517          	auipc	a0,0x6
     9ac:	40850513          	addi	a0,a0,1032 # 6db0 <malloc+0x194>
     9b0:	00006097          	auipc	ra,0x6
     9b4:	e66080e7          	jalr	-410(ra) # 6816 <unlink>
  close(fd1);
     9b8:	854e                	mv	a0,s3
     9ba:	00006097          	auipc	ra,0x6
     9be:	e34080e7          	jalr	-460(ra) # 67ee <close>
  close(fd2);
     9c2:	8526                	mv	a0,s1
     9c4:	00006097          	auipc	ra,0x6
     9c8:	e2a080e7          	jalr	-470(ra) # 67ee <close>
  close(fd3);
     9cc:	854a                	mv	a0,s2
     9ce:	00006097          	auipc	ra,0x6
     9d2:	e20080e7          	jalr	-480(ra) # 67ee <close>
}
     9d6:	60e6                	ld	ra,88(sp)
     9d8:	6446                	ld	s0,80(sp)
     9da:	64a6                	ld	s1,72(sp)
     9dc:	6906                	ld	s2,64(sp)
     9de:	79e2                	ld	s3,56(sp)
     9e0:	7a42                	ld	s4,48(sp)
     9e2:	7aa2                	ld	s5,40(sp)
     9e4:	6125                	addi	sp,sp,96
     9e6:	8082                	ret
    printf("%s: read %d bytes, wanted 4\n", s, n);
     9e8:	862a                	mv	a2,a0
     9ea:	85d6                	mv	a1,s5
     9ec:	00006517          	auipc	a0,0x6
     9f0:	5dc50513          	addi	a0,a0,1500 # 6fc8 <malloc+0x3ac>
     9f4:	00006097          	auipc	ra,0x6
     9f8:	16a080e7          	jalr	362(ra) # 6b5e <printf>
    exit(1,"");
     9fc:	00008597          	auipc	a1,0x8
     a00:	94c58593          	addi	a1,a1,-1716 # 8348 <malloc+0x172c>
     a04:	4505                	li	a0,1
     a06:	00006097          	auipc	ra,0x6
     a0a:	dc0080e7          	jalr	-576(ra) # 67c6 <exit>
    printf("aaa fd3=%d\n", fd3);
     a0e:	85ca                	mv	a1,s2
     a10:	00006517          	auipc	a0,0x6
     a14:	5d850513          	addi	a0,a0,1496 # 6fe8 <malloc+0x3cc>
     a18:	00006097          	auipc	ra,0x6
     a1c:	146080e7          	jalr	326(ra) # 6b5e <printf>
    printf("%s: read %d bytes, wanted 0\n", s, n);
     a20:	8652                	mv	a2,s4
     a22:	85d6                	mv	a1,s5
     a24:	00006517          	auipc	a0,0x6
     a28:	5d450513          	addi	a0,a0,1492 # 6ff8 <malloc+0x3dc>
     a2c:	00006097          	auipc	ra,0x6
     a30:	132080e7          	jalr	306(ra) # 6b5e <printf>
    exit(1,"");
     a34:	00008597          	auipc	a1,0x8
     a38:	91458593          	addi	a1,a1,-1772 # 8348 <malloc+0x172c>
     a3c:	4505                	li	a0,1
     a3e:	00006097          	auipc	ra,0x6
     a42:	d88080e7          	jalr	-632(ra) # 67c6 <exit>
    printf("bbb fd2=%d\n", fd2);
     a46:	85a6                	mv	a1,s1
     a48:	00006517          	auipc	a0,0x6
     a4c:	5d050513          	addi	a0,a0,1488 # 7018 <malloc+0x3fc>
     a50:	00006097          	auipc	ra,0x6
     a54:	10e080e7          	jalr	270(ra) # 6b5e <printf>
    printf("%s: read %d bytes, wanted 0\n", s, n);
     a58:	8652                	mv	a2,s4
     a5a:	85d6                	mv	a1,s5
     a5c:	00006517          	auipc	a0,0x6
     a60:	59c50513          	addi	a0,a0,1436 # 6ff8 <malloc+0x3dc>
     a64:	00006097          	auipc	ra,0x6
     a68:	0fa080e7          	jalr	250(ra) # 6b5e <printf>
    exit(1,"");
     a6c:	00008597          	auipc	a1,0x8
     a70:	8dc58593          	addi	a1,a1,-1828 # 8348 <malloc+0x172c>
     a74:	4505                	li	a0,1
     a76:	00006097          	auipc	ra,0x6
     a7a:	d50080e7          	jalr	-688(ra) # 67c6 <exit>
    printf("%s: read %d bytes, wanted 6\n", s, n);
     a7e:	862a                	mv	a2,a0
     a80:	85d6                	mv	a1,s5
     a82:	00006517          	auipc	a0,0x6
     a86:	5ae50513          	addi	a0,a0,1454 # 7030 <malloc+0x414>
     a8a:	00006097          	auipc	ra,0x6
     a8e:	0d4080e7          	jalr	212(ra) # 6b5e <printf>
    exit(1,"");
     a92:	00008597          	auipc	a1,0x8
     a96:	8b658593          	addi	a1,a1,-1866 # 8348 <malloc+0x172c>
     a9a:	4505                	li	a0,1
     a9c:	00006097          	auipc	ra,0x6
     aa0:	d2a080e7          	jalr	-726(ra) # 67c6 <exit>
    printf("%s: read %d bytes, wanted 2\n", s, n);
     aa4:	862a                	mv	a2,a0
     aa6:	85d6                	mv	a1,s5
     aa8:	00006517          	auipc	a0,0x6
     aac:	5a850513          	addi	a0,a0,1448 # 7050 <malloc+0x434>
     ab0:	00006097          	auipc	ra,0x6
     ab4:	0ae080e7          	jalr	174(ra) # 6b5e <printf>
    exit(1,"");
     ab8:	00008597          	auipc	a1,0x8
     abc:	89058593          	addi	a1,a1,-1904 # 8348 <malloc+0x172c>
     ac0:	4505                	li	a0,1
     ac2:	00006097          	auipc	ra,0x6
     ac6:	d04080e7          	jalr	-764(ra) # 67c6 <exit>

0000000000000aca <writetest>:
{
     aca:	7139                	addi	sp,sp,-64
     acc:	fc06                	sd	ra,56(sp)
     ace:	f822                	sd	s0,48(sp)
     ad0:	f426                	sd	s1,40(sp)
     ad2:	f04a                	sd	s2,32(sp)
     ad4:	ec4e                	sd	s3,24(sp)
     ad6:	e852                	sd	s4,16(sp)
     ad8:	e456                	sd	s5,8(sp)
     ada:	e05a                	sd	s6,0(sp)
     adc:	0080                	addi	s0,sp,64
     ade:	8b2a                	mv	s6,a0
  fd = open("small", O_CREATE|O_RDWR);
     ae0:	20200593          	li	a1,514
     ae4:	00006517          	auipc	a0,0x6
     ae8:	58c50513          	addi	a0,a0,1420 # 7070 <malloc+0x454>
     aec:	00006097          	auipc	ra,0x6
     af0:	d1a080e7          	jalr	-742(ra) # 6806 <open>
  if(fd < 0){
     af4:	0a054d63          	bltz	a0,bae <writetest+0xe4>
     af8:	892a                	mv	s2,a0
     afa:	4481                	li	s1,0
    if(write(fd, "aaaaaaaaaa", SZ) != SZ){
     afc:	00006997          	auipc	s3,0x6
     b00:	59c98993          	addi	s3,s3,1436 # 7098 <malloc+0x47c>
    if(write(fd, "bbbbbbbbbb", SZ) != SZ){
     b04:	00006a97          	auipc	s5,0x6
     b08:	5cca8a93          	addi	s5,s5,1484 # 70d0 <malloc+0x4b4>
  for(i = 0; i < N; i++){
     b0c:	06400a13          	li	s4,100
    if(write(fd, "aaaaaaaaaa", SZ) != SZ){
     b10:	4629                	li	a2,10
     b12:	85ce                	mv	a1,s3
     b14:	854a                	mv	a0,s2
     b16:	00006097          	auipc	ra,0x6
     b1a:	cd0080e7          	jalr	-816(ra) # 67e6 <write>
     b1e:	47a9                	li	a5,10
     b20:	0af51963          	bne	a0,a5,bd2 <writetest+0x108>
    if(write(fd, "bbbbbbbbbb", SZ) != SZ){
     b24:	4629                	li	a2,10
     b26:	85d6                	mv	a1,s5
     b28:	854a                	mv	a0,s2
     b2a:	00006097          	auipc	ra,0x6
     b2e:	cbc080e7          	jalr	-836(ra) # 67e6 <write>
     b32:	47a9                	li	a5,10
     b34:	0cf51263          	bne	a0,a5,bf8 <writetest+0x12e>
  for(i = 0; i < N; i++){
     b38:	2485                	addiw	s1,s1,1
     b3a:	fd449be3          	bne	s1,s4,b10 <writetest+0x46>
  close(fd);
     b3e:	854a                	mv	a0,s2
     b40:	00006097          	auipc	ra,0x6
     b44:	cae080e7          	jalr	-850(ra) # 67ee <close>
  fd = open("small", O_RDONLY);
     b48:	4581                	li	a1,0
     b4a:	00006517          	auipc	a0,0x6
     b4e:	52650513          	addi	a0,a0,1318 # 7070 <malloc+0x454>
     b52:	00006097          	auipc	ra,0x6
     b56:	cb4080e7          	jalr	-844(ra) # 6806 <open>
     b5a:	84aa                	mv	s1,a0
  if(fd < 0){
     b5c:	0c054163          	bltz	a0,c1e <writetest+0x154>
  i = read(fd, buf, N*SZ*2);
     b60:	7d000613          	li	a2,2000
     b64:	0000d597          	auipc	a1,0xd
     b68:	11458593          	addi	a1,a1,276 # dc78 <buf>
     b6c:	00006097          	auipc	ra,0x6
     b70:	c72080e7          	jalr	-910(ra) # 67de <read>
  if(i != N*SZ*2){
     b74:	7d000793          	li	a5,2000
     b78:	0cf51563          	bne	a0,a5,c42 <writetest+0x178>
  close(fd);
     b7c:	8526                	mv	a0,s1
     b7e:	00006097          	auipc	ra,0x6
     b82:	c70080e7          	jalr	-912(ra) # 67ee <close>
  if(unlink("small") < 0){
     b86:	00006517          	auipc	a0,0x6
     b8a:	4ea50513          	addi	a0,a0,1258 # 7070 <malloc+0x454>
     b8e:	00006097          	auipc	ra,0x6
     b92:	c88080e7          	jalr	-888(ra) # 6816 <unlink>
     b96:	0c054863          	bltz	a0,c66 <writetest+0x19c>
}
     b9a:	70e2                	ld	ra,56(sp)
     b9c:	7442                	ld	s0,48(sp)
     b9e:	74a2                	ld	s1,40(sp)
     ba0:	7902                	ld	s2,32(sp)
     ba2:	69e2                	ld	s3,24(sp)
     ba4:	6a42                	ld	s4,16(sp)
     ba6:	6aa2                	ld	s5,8(sp)
     ba8:	6b02                	ld	s6,0(sp)
     baa:	6121                	addi	sp,sp,64
     bac:	8082                	ret
    printf("%s: error: creat small failed!\n", s);
     bae:	85da                	mv	a1,s6
     bb0:	00006517          	auipc	a0,0x6
     bb4:	4c850513          	addi	a0,a0,1224 # 7078 <malloc+0x45c>
     bb8:	00006097          	auipc	ra,0x6
     bbc:	fa6080e7          	jalr	-90(ra) # 6b5e <printf>
    exit(1,"");
     bc0:	00007597          	auipc	a1,0x7
     bc4:	78858593          	addi	a1,a1,1928 # 8348 <malloc+0x172c>
     bc8:	4505                	li	a0,1
     bca:	00006097          	auipc	ra,0x6
     bce:	bfc080e7          	jalr	-1028(ra) # 67c6 <exit>
      printf("%s: error: write aa %d new file failed\n", s, i);
     bd2:	8626                	mv	a2,s1
     bd4:	85da                	mv	a1,s6
     bd6:	00006517          	auipc	a0,0x6
     bda:	4d250513          	addi	a0,a0,1234 # 70a8 <malloc+0x48c>
     bde:	00006097          	auipc	ra,0x6
     be2:	f80080e7          	jalr	-128(ra) # 6b5e <printf>
      exit(1,"");
     be6:	00007597          	auipc	a1,0x7
     bea:	76258593          	addi	a1,a1,1890 # 8348 <malloc+0x172c>
     bee:	4505                	li	a0,1
     bf0:	00006097          	auipc	ra,0x6
     bf4:	bd6080e7          	jalr	-1066(ra) # 67c6 <exit>
      printf("%s: error: write bb %d new file failed\n", s, i);
     bf8:	8626                	mv	a2,s1
     bfa:	85da                	mv	a1,s6
     bfc:	00006517          	auipc	a0,0x6
     c00:	4e450513          	addi	a0,a0,1252 # 70e0 <malloc+0x4c4>
     c04:	00006097          	auipc	ra,0x6
     c08:	f5a080e7          	jalr	-166(ra) # 6b5e <printf>
      exit(1,"");
     c0c:	00007597          	auipc	a1,0x7
     c10:	73c58593          	addi	a1,a1,1852 # 8348 <malloc+0x172c>
     c14:	4505                	li	a0,1
     c16:	00006097          	auipc	ra,0x6
     c1a:	bb0080e7          	jalr	-1104(ra) # 67c6 <exit>
    printf("%s: error: open small failed!\n", s);
     c1e:	85da                	mv	a1,s6
     c20:	00006517          	auipc	a0,0x6
     c24:	4e850513          	addi	a0,a0,1256 # 7108 <malloc+0x4ec>
     c28:	00006097          	auipc	ra,0x6
     c2c:	f36080e7          	jalr	-202(ra) # 6b5e <printf>
    exit(1,"");
     c30:	00007597          	auipc	a1,0x7
     c34:	71858593          	addi	a1,a1,1816 # 8348 <malloc+0x172c>
     c38:	4505                	li	a0,1
     c3a:	00006097          	auipc	ra,0x6
     c3e:	b8c080e7          	jalr	-1140(ra) # 67c6 <exit>
    printf("%s: read failed\n", s);
     c42:	85da                	mv	a1,s6
     c44:	00006517          	auipc	a0,0x6
     c48:	4e450513          	addi	a0,a0,1252 # 7128 <malloc+0x50c>
     c4c:	00006097          	auipc	ra,0x6
     c50:	f12080e7          	jalr	-238(ra) # 6b5e <printf>
    exit(1,"");
     c54:	00007597          	auipc	a1,0x7
     c58:	6f458593          	addi	a1,a1,1780 # 8348 <malloc+0x172c>
     c5c:	4505                	li	a0,1
     c5e:	00006097          	auipc	ra,0x6
     c62:	b68080e7          	jalr	-1176(ra) # 67c6 <exit>
    printf("%s: unlink small failed\n", s);
     c66:	85da                	mv	a1,s6
     c68:	00006517          	auipc	a0,0x6
     c6c:	4d850513          	addi	a0,a0,1240 # 7140 <malloc+0x524>
     c70:	00006097          	auipc	ra,0x6
     c74:	eee080e7          	jalr	-274(ra) # 6b5e <printf>
    exit(1,"");
     c78:	00007597          	auipc	a1,0x7
     c7c:	6d058593          	addi	a1,a1,1744 # 8348 <malloc+0x172c>
     c80:	4505                	li	a0,1
     c82:	00006097          	auipc	ra,0x6
     c86:	b44080e7          	jalr	-1212(ra) # 67c6 <exit>

0000000000000c8a <writebig>:
{
     c8a:	7139                	addi	sp,sp,-64
     c8c:	fc06                	sd	ra,56(sp)
     c8e:	f822                	sd	s0,48(sp)
     c90:	f426                	sd	s1,40(sp)
     c92:	f04a                	sd	s2,32(sp)
     c94:	ec4e                	sd	s3,24(sp)
     c96:	e852                	sd	s4,16(sp)
     c98:	e456                	sd	s5,8(sp)
     c9a:	0080                	addi	s0,sp,64
     c9c:	8aaa                	mv	s5,a0
  fd = open("big", O_CREATE|O_RDWR);
     c9e:	20200593          	li	a1,514
     ca2:	00006517          	auipc	a0,0x6
     ca6:	4be50513          	addi	a0,a0,1214 # 7160 <malloc+0x544>
     caa:	00006097          	auipc	ra,0x6
     cae:	b5c080e7          	jalr	-1188(ra) # 6806 <open>
     cb2:	89aa                	mv	s3,a0
  for(i = 0; i < MAXFILE; i++){
     cb4:	4481                	li	s1,0
    ((int*)buf)[0] = i;
     cb6:	0000d917          	auipc	s2,0xd
     cba:	fc290913          	addi	s2,s2,-62 # dc78 <buf>
  for(i = 0; i < MAXFILE; i++){
     cbe:	10c00a13          	li	s4,268
  if(fd < 0){
     cc2:	06054c63          	bltz	a0,d3a <writebig+0xb0>
    ((int*)buf)[0] = i;
     cc6:	00992023          	sw	s1,0(s2)
    if(write(fd, buf, BSIZE) != BSIZE){
     cca:	40000613          	li	a2,1024
     cce:	85ca                	mv	a1,s2
     cd0:	854e                	mv	a0,s3
     cd2:	00006097          	auipc	ra,0x6
     cd6:	b14080e7          	jalr	-1260(ra) # 67e6 <write>
     cda:	40000793          	li	a5,1024
     cde:	08f51063          	bne	a0,a5,d5e <writebig+0xd4>
  for(i = 0; i < MAXFILE; i++){
     ce2:	2485                	addiw	s1,s1,1
     ce4:	ff4491e3          	bne	s1,s4,cc6 <writebig+0x3c>
  close(fd);
     ce8:	854e                	mv	a0,s3
     cea:	00006097          	auipc	ra,0x6
     cee:	b04080e7          	jalr	-1276(ra) # 67ee <close>
  fd = open("big", O_RDONLY);
     cf2:	4581                	li	a1,0
     cf4:	00006517          	auipc	a0,0x6
     cf8:	46c50513          	addi	a0,a0,1132 # 7160 <malloc+0x544>
     cfc:	00006097          	auipc	ra,0x6
     d00:	b0a080e7          	jalr	-1270(ra) # 6806 <open>
     d04:	89aa                	mv	s3,a0
  n = 0;
     d06:	4481                	li	s1,0
    i = read(fd, buf, BSIZE);
     d08:	0000d917          	auipc	s2,0xd
     d0c:	f7090913          	addi	s2,s2,-144 # dc78 <buf>
  if(fd < 0){
     d10:	06054a63          	bltz	a0,d84 <writebig+0xfa>
    i = read(fd, buf, BSIZE);
     d14:	40000613          	li	a2,1024
     d18:	85ca                	mv	a1,s2
     d1a:	854e                	mv	a0,s3
     d1c:	00006097          	auipc	ra,0x6
     d20:	ac2080e7          	jalr	-1342(ra) # 67de <read>
    if(i == 0){
     d24:	c151                	beqz	a0,da8 <writebig+0x11e>
    } else if(i != BSIZE){
     d26:	40000793          	li	a5,1024
     d2a:	0cf51f63          	bne	a0,a5,e08 <writebig+0x17e>
    if(((int*)buf)[0] != n){
     d2e:	00092683          	lw	a3,0(s2)
     d32:	0e969e63          	bne	a3,s1,e2e <writebig+0x1a4>
    n++;
     d36:	2485                	addiw	s1,s1,1
    i = read(fd, buf, BSIZE);
     d38:	bff1                	j	d14 <writebig+0x8a>
    printf("%s: error: creat big failed!\n", s);
     d3a:	85d6                	mv	a1,s5
     d3c:	00006517          	auipc	a0,0x6
     d40:	42c50513          	addi	a0,a0,1068 # 7168 <malloc+0x54c>
     d44:	00006097          	auipc	ra,0x6
     d48:	e1a080e7          	jalr	-486(ra) # 6b5e <printf>
    exit(1,"");
     d4c:	00007597          	auipc	a1,0x7
     d50:	5fc58593          	addi	a1,a1,1532 # 8348 <malloc+0x172c>
     d54:	4505                	li	a0,1
     d56:	00006097          	auipc	ra,0x6
     d5a:	a70080e7          	jalr	-1424(ra) # 67c6 <exit>
      printf("%s: error: write big file failed\n", s, i);
     d5e:	8626                	mv	a2,s1
     d60:	85d6                	mv	a1,s5
     d62:	00006517          	auipc	a0,0x6
     d66:	42650513          	addi	a0,a0,1062 # 7188 <malloc+0x56c>
     d6a:	00006097          	auipc	ra,0x6
     d6e:	df4080e7          	jalr	-524(ra) # 6b5e <printf>
      exit(1,"");
     d72:	00007597          	auipc	a1,0x7
     d76:	5d658593          	addi	a1,a1,1494 # 8348 <malloc+0x172c>
     d7a:	4505                	li	a0,1
     d7c:	00006097          	auipc	ra,0x6
     d80:	a4a080e7          	jalr	-1462(ra) # 67c6 <exit>
    printf("%s: error: open big failed!\n", s);
     d84:	85d6                	mv	a1,s5
     d86:	00006517          	auipc	a0,0x6
     d8a:	42a50513          	addi	a0,a0,1066 # 71b0 <malloc+0x594>
     d8e:	00006097          	auipc	ra,0x6
     d92:	dd0080e7          	jalr	-560(ra) # 6b5e <printf>
    exit(1,"");
     d96:	00007597          	auipc	a1,0x7
     d9a:	5b258593          	addi	a1,a1,1458 # 8348 <malloc+0x172c>
     d9e:	4505                	li	a0,1
     da0:	00006097          	auipc	ra,0x6
     da4:	a26080e7          	jalr	-1498(ra) # 67c6 <exit>
      if(n == MAXFILE - 1){
     da8:	10b00793          	li	a5,267
     dac:	02f48a63          	beq	s1,a5,de0 <writebig+0x156>
  close(fd);
     db0:	854e                	mv	a0,s3
     db2:	00006097          	auipc	ra,0x6
     db6:	a3c080e7          	jalr	-1476(ra) # 67ee <close>
  if(unlink("big") < 0){
     dba:	00006517          	auipc	a0,0x6
     dbe:	3a650513          	addi	a0,a0,934 # 7160 <malloc+0x544>
     dc2:	00006097          	auipc	ra,0x6
     dc6:	a54080e7          	jalr	-1452(ra) # 6816 <unlink>
     dca:	08054563          	bltz	a0,e54 <writebig+0x1ca>
}
     dce:	70e2                	ld	ra,56(sp)
     dd0:	7442                	ld	s0,48(sp)
     dd2:	74a2                	ld	s1,40(sp)
     dd4:	7902                	ld	s2,32(sp)
     dd6:	69e2                	ld	s3,24(sp)
     dd8:	6a42                	ld	s4,16(sp)
     dda:	6aa2                	ld	s5,8(sp)
     ddc:	6121                	addi	sp,sp,64
     dde:	8082                	ret
        printf("%s: read only %d blocks from big", s, n);
     de0:	10b00613          	li	a2,267
     de4:	85d6                	mv	a1,s5
     de6:	00006517          	auipc	a0,0x6
     dea:	3ea50513          	addi	a0,a0,1002 # 71d0 <malloc+0x5b4>
     dee:	00006097          	auipc	ra,0x6
     df2:	d70080e7          	jalr	-656(ra) # 6b5e <printf>
        exit(1,"");
     df6:	00007597          	auipc	a1,0x7
     dfa:	55258593          	addi	a1,a1,1362 # 8348 <malloc+0x172c>
     dfe:	4505                	li	a0,1
     e00:	00006097          	auipc	ra,0x6
     e04:	9c6080e7          	jalr	-1594(ra) # 67c6 <exit>
      printf("%s: read failed %d\n", s, i);
     e08:	862a                	mv	a2,a0
     e0a:	85d6                	mv	a1,s5
     e0c:	00006517          	auipc	a0,0x6
     e10:	3ec50513          	addi	a0,a0,1004 # 71f8 <malloc+0x5dc>
     e14:	00006097          	auipc	ra,0x6
     e18:	d4a080e7          	jalr	-694(ra) # 6b5e <printf>
      exit(1,"");
     e1c:	00007597          	auipc	a1,0x7
     e20:	52c58593          	addi	a1,a1,1324 # 8348 <malloc+0x172c>
     e24:	4505                	li	a0,1
     e26:	00006097          	auipc	ra,0x6
     e2a:	9a0080e7          	jalr	-1632(ra) # 67c6 <exit>
      printf("%s: read content of block %d is %d\n", s,
     e2e:	8626                	mv	a2,s1
     e30:	85d6                	mv	a1,s5
     e32:	00006517          	auipc	a0,0x6
     e36:	3de50513          	addi	a0,a0,990 # 7210 <malloc+0x5f4>
     e3a:	00006097          	auipc	ra,0x6
     e3e:	d24080e7          	jalr	-732(ra) # 6b5e <printf>
      exit(1,"");
     e42:	00007597          	auipc	a1,0x7
     e46:	50658593          	addi	a1,a1,1286 # 8348 <malloc+0x172c>
     e4a:	4505                	li	a0,1
     e4c:	00006097          	auipc	ra,0x6
     e50:	97a080e7          	jalr	-1670(ra) # 67c6 <exit>
    printf("%s: unlink big failed\n", s);
     e54:	85d6                	mv	a1,s5
     e56:	00006517          	auipc	a0,0x6
     e5a:	3e250513          	addi	a0,a0,994 # 7238 <malloc+0x61c>
     e5e:	00006097          	auipc	ra,0x6
     e62:	d00080e7          	jalr	-768(ra) # 6b5e <printf>
    exit(1,"");
     e66:	00007597          	auipc	a1,0x7
     e6a:	4e258593          	addi	a1,a1,1250 # 8348 <malloc+0x172c>
     e6e:	4505                	li	a0,1
     e70:	00006097          	auipc	ra,0x6
     e74:	956080e7          	jalr	-1706(ra) # 67c6 <exit>

0000000000000e78 <unlinkread>:
{
     e78:	7179                	addi	sp,sp,-48
     e7a:	f406                	sd	ra,40(sp)
     e7c:	f022                	sd	s0,32(sp)
     e7e:	ec26                	sd	s1,24(sp)
     e80:	e84a                	sd	s2,16(sp)
     e82:	e44e                	sd	s3,8(sp)
     e84:	1800                	addi	s0,sp,48
     e86:	89aa                	mv	s3,a0
  fd = open("unlinkread", O_CREATE | O_RDWR);
     e88:	20200593          	li	a1,514
     e8c:	00006517          	auipc	a0,0x6
     e90:	3c450513          	addi	a0,a0,964 # 7250 <malloc+0x634>
     e94:	00006097          	auipc	ra,0x6
     e98:	972080e7          	jalr	-1678(ra) # 6806 <open>
  if(fd < 0){
     e9c:	0e054563          	bltz	a0,f86 <unlinkread+0x10e>
     ea0:	84aa                	mv	s1,a0
  write(fd, "hello", SZ);
     ea2:	4615                	li	a2,5
     ea4:	00006597          	auipc	a1,0x6
     ea8:	3dc58593          	addi	a1,a1,988 # 7280 <malloc+0x664>
     eac:	00006097          	auipc	ra,0x6
     eb0:	93a080e7          	jalr	-1734(ra) # 67e6 <write>
  close(fd);
     eb4:	8526                	mv	a0,s1
     eb6:	00006097          	auipc	ra,0x6
     eba:	938080e7          	jalr	-1736(ra) # 67ee <close>
  fd = open("unlinkread", O_RDWR);
     ebe:	4589                	li	a1,2
     ec0:	00006517          	auipc	a0,0x6
     ec4:	39050513          	addi	a0,a0,912 # 7250 <malloc+0x634>
     ec8:	00006097          	auipc	ra,0x6
     ecc:	93e080e7          	jalr	-1730(ra) # 6806 <open>
     ed0:	84aa                	mv	s1,a0
  if(fd < 0){
     ed2:	0c054c63          	bltz	a0,faa <unlinkread+0x132>
  if(unlink("unlinkread") != 0){
     ed6:	00006517          	auipc	a0,0x6
     eda:	37a50513          	addi	a0,a0,890 # 7250 <malloc+0x634>
     ede:	00006097          	auipc	ra,0x6
     ee2:	938080e7          	jalr	-1736(ra) # 6816 <unlink>
     ee6:	e565                	bnez	a0,fce <unlinkread+0x156>
  fd1 = open("unlinkread", O_CREATE | O_RDWR);
     ee8:	20200593          	li	a1,514
     eec:	00006517          	auipc	a0,0x6
     ef0:	36450513          	addi	a0,a0,868 # 7250 <malloc+0x634>
     ef4:	00006097          	auipc	ra,0x6
     ef8:	912080e7          	jalr	-1774(ra) # 6806 <open>
     efc:	892a                	mv	s2,a0
  write(fd1, "yyy", 3);
     efe:	460d                	li	a2,3
     f00:	00006597          	auipc	a1,0x6
     f04:	3c858593          	addi	a1,a1,968 # 72c8 <malloc+0x6ac>
     f08:	00006097          	auipc	ra,0x6
     f0c:	8de080e7          	jalr	-1826(ra) # 67e6 <write>
  close(fd1);
     f10:	854a                	mv	a0,s2
     f12:	00006097          	auipc	ra,0x6
     f16:	8dc080e7          	jalr	-1828(ra) # 67ee <close>
  if(read(fd, buf, sizeof(buf)) != SZ){
     f1a:	660d                	lui	a2,0x3
     f1c:	0000d597          	auipc	a1,0xd
     f20:	d5c58593          	addi	a1,a1,-676 # dc78 <buf>
     f24:	8526                	mv	a0,s1
     f26:	00006097          	auipc	ra,0x6
     f2a:	8b8080e7          	jalr	-1864(ra) # 67de <read>
     f2e:	4795                	li	a5,5
     f30:	0cf51163          	bne	a0,a5,ff2 <unlinkread+0x17a>
  if(buf[0] != 'h'){
     f34:	0000d717          	auipc	a4,0xd
     f38:	d4474703          	lbu	a4,-700(a4) # dc78 <buf>
     f3c:	06800793          	li	a5,104
     f40:	0cf71b63          	bne	a4,a5,1016 <unlinkread+0x19e>
  if(write(fd, buf, 10) != 10){
     f44:	4629                	li	a2,10
     f46:	0000d597          	auipc	a1,0xd
     f4a:	d3258593          	addi	a1,a1,-718 # dc78 <buf>
     f4e:	8526                	mv	a0,s1
     f50:	00006097          	auipc	ra,0x6
     f54:	896080e7          	jalr	-1898(ra) # 67e6 <write>
     f58:	47a9                	li	a5,10
     f5a:	0ef51063          	bne	a0,a5,103a <unlinkread+0x1c2>
  close(fd);
     f5e:	8526                	mv	a0,s1
     f60:	00006097          	auipc	ra,0x6
     f64:	88e080e7          	jalr	-1906(ra) # 67ee <close>
  unlink("unlinkread");
     f68:	00006517          	auipc	a0,0x6
     f6c:	2e850513          	addi	a0,a0,744 # 7250 <malloc+0x634>
     f70:	00006097          	auipc	ra,0x6
     f74:	8a6080e7          	jalr	-1882(ra) # 6816 <unlink>
}
     f78:	70a2                	ld	ra,40(sp)
     f7a:	7402                	ld	s0,32(sp)
     f7c:	64e2                	ld	s1,24(sp)
     f7e:	6942                	ld	s2,16(sp)
     f80:	69a2                	ld	s3,8(sp)
     f82:	6145                	addi	sp,sp,48
     f84:	8082                	ret
    printf("%s: create unlinkread failed\n", s);
     f86:	85ce                	mv	a1,s3
     f88:	00006517          	auipc	a0,0x6
     f8c:	2d850513          	addi	a0,a0,728 # 7260 <malloc+0x644>
     f90:	00006097          	auipc	ra,0x6
     f94:	bce080e7          	jalr	-1074(ra) # 6b5e <printf>
    exit(1,"");
     f98:	00007597          	auipc	a1,0x7
     f9c:	3b058593          	addi	a1,a1,944 # 8348 <malloc+0x172c>
     fa0:	4505                	li	a0,1
     fa2:	00006097          	auipc	ra,0x6
     fa6:	824080e7          	jalr	-2012(ra) # 67c6 <exit>
    printf("%s: open unlinkread failed\n", s);
     faa:	85ce                	mv	a1,s3
     fac:	00006517          	auipc	a0,0x6
     fb0:	2dc50513          	addi	a0,a0,732 # 7288 <malloc+0x66c>
     fb4:	00006097          	auipc	ra,0x6
     fb8:	baa080e7          	jalr	-1110(ra) # 6b5e <printf>
    exit(1,"");
     fbc:	00007597          	auipc	a1,0x7
     fc0:	38c58593          	addi	a1,a1,908 # 8348 <malloc+0x172c>
     fc4:	4505                	li	a0,1
     fc6:	00006097          	auipc	ra,0x6
     fca:	800080e7          	jalr	-2048(ra) # 67c6 <exit>
    printf("%s: unlink unlinkread failed\n", s);
     fce:	85ce                	mv	a1,s3
     fd0:	00006517          	auipc	a0,0x6
     fd4:	2d850513          	addi	a0,a0,728 # 72a8 <malloc+0x68c>
     fd8:	00006097          	auipc	ra,0x6
     fdc:	b86080e7          	jalr	-1146(ra) # 6b5e <printf>
    exit(1,"");
     fe0:	00007597          	auipc	a1,0x7
     fe4:	36858593          	addi	a1,a1,872 # 8348 <malloc+0x172c>
     fe8:	4505                	li	a0,1
     fea:	00005097          	auipc	ra,0x5
     fee:	7dc080e7          	jalr	2012(ra) # 67c6 <exit>
    printf("%s: unlinkread read failed", s);
     ff2:	85ce                	mv	a1,s3
     ff4:	00006517          	auipc	a0,0x6
     ff8:	2dc50513          	addi	a0,a0,732 # 72d0 <malloc+0x6b4>
     ffc:	00006097          	auipc	ra,0x6
    1000:	b62080e7          	jalr	-1182(ra) # 6b5e <printf>
    exit(1,"");
    1004:	00007597          	auipc	a1,0x7
    1008:	34458593          	addi	a1,a1,836 # 8348 <malloc+0x172c>
    100c:	4505                	li	a0,1
    100e:	00005097          	auipc	ra,0x5
    1012:	7b8080e7          	jalr	1976(ra) # 67c6 <exit>
    printf("%s: unlinkread wrong data\n", s);
    1016:	85ce                	mv	a1,s3
    1018:	00006517          	auipc	a0,0x6
    101c:	2d850513          	addi	a0,a0,728 # 72f0 <malloc+0x6d4>
    1020:	00006097          	auipc	ra,0x6
    1024:	b3e080e7          	jalr	-1218(ra) # 6b5e <printf>
    exit(1,"");
    1028:	00007597          	auipc	a1,0x7
    102c:	32058593          	addi	a1,a1,800 # 8348 <malloc+0x172c>
    1030:	4505                	li	a0,1
    1032:	00005097          	auipc	ra,0x5
    1036:	794080e7          	jalr	1940(ra) # 67c6 <exit>
    printf("%s: unlinkread write failed\n", s);
    103a:	85ce                	mv	a1,s3
    103c:	00006517          	auipc	a0,0x6
    1040:	2d450513          	addi	a0,a0,724 # 7310 <malloc+0x6f4>
    1044:	00006097          	auipc	ra,0x6
    1048:	b1a080e7          	jalr	-1254(ra) # 6b5e <printf>
    exit(1,"");
    104c:	00007597          	auipc	a1,0x7
    1050:	2fc58593          	addi	a1,a1,764 # 8348 <malloc+0x172c>
    1054:	4505                	li	a0,1
    1056:	00005097          	auipc	ra,0x5
    105a:	770080e7          	jalr	1904(ra) # 67c6 <exit>

000000000000105e <linktest>:
{
    105e:	1101                	addi	sp,sp,-32
    1060:	ec06                	sd	ra,24(sp)
    1062:	e822                	sd	s0,16(sp)
    1064:	e426                	sd	s1,8(sp)
    1066:	e04a                	sd	s2,0(sp)
    1068:	1000                	addi	s0,sp,32
    106a:	892a                	mv	s2,a0
  unlink("lf1");
    106c:	00006517          	auipc	a0,0x6
    1070:	2c450513          	addi	a0,a0,708 # 7330 <malloc+0x714>
    1074:	00005097          	auipc	ra,0x5
    1078:	7a2080e7          	jalr	1954(ra) # 6816 <unlink>
  unlink("lf2");
    107c:	00006517          	auipc	a0,0x6
    1080:	2bc50513          	addi	a0,a0,700 # 7338 <malloc+0x71c>
    1084:	00005097          	auipc	ra,0x5
    1088:	792080e7          	jalr	1938(ra) # 6816 <unlink>
  fd = open("lf1", O_CREATE|O_RDWR);
    108c:	20200593          	li	a1,514
    1090:	00006517          	auipc	a0,0x6
    1094:	2a050513          	addi	a0,a0,672 # 7330 <malloc+0x714>
    1098:	00005097          	auipc	ra,0x5
    109c:	76e080e7          	jalr	1902(ra) # 6806 <open>
  if(fd < 0){
    10a0:	10054763          	bltz	a0,11ae <linktest+0x150>
    10a4:	84aa                	mv	s1,a0
  if(write(fd, "hello", SZ) != SZ){
    10a6:	4615                	li	a2,5
    10a8:	00006597          	auipc	a1,0x6
    10ac:	1d858593          	addi	a1,a1,472 # 7280 <malloc+0x664>
    10b0:	00005097          	auipc	ra,0x5
    10b4:	736080e7          	jalr	1846(ra) # 67e6 <write>
    10b8:	4795                	li	a5,5
    10ba:	10f51c63          	bne	a0,a5,11d2 <linktest+0x174>
  close(fd);
    10be:	8526                	mv	a0,s1
    10c0:	00005097          	auipc	ra,0x5
    10c4:	72e080e7          	jalr	1838(ra) # 67ee <close>
  if(link("lf1", "lf2") < 0){
    10c8:	00006597          	auipc	a1,0x6
    10cc:	27058593          	addi	a1,a1,624 # 7338 <malloc+0x71c>
    10d0:	00006517          	auipc	a0,0x6
    10d4:	26050513          	addi	a0,a0,608 # 7330 <malloc+0x714>
    10d8:	00005097          	auipc	ra,0x5
    10dc:	74e080e7          	jalr	1870(ra) # 6826 <link>
    10e0:	10054b63          	bltz	a0,11f6 <linktest+0x198>
  unlink("lf1");
    10e4:	00006517          	auipc	a0,0x6
    10e8:	24c50513          	addi	a0,a0,588 # 7330 <malloc+0x714>
    10ec:	00005097          	auipc	ra,0x5
    10f0:	72a080e7          	jalr	1834(ra) # 6816 <unlink>
  if(open("lf1", 0) >= 0){
    10f4:	4581                	li	a1,0
    10f6:	00006517          	auipc	a0,0x6
    10fa:	23a50513          	addi	a0,a0,570 # 7330 <malloc+0x714>
    10fe:	00005097          	auipc	ra,0x5
    1102:	708080e7          	jalr	1800(ra) # 6806 <open>
    1106:	10055a63          	bgez	a0,121a <linktest+0x1bc>
  fd = open("lf2", 0);
    110a:	4581                	li	a1,0
    110c:	00006517          	auipc	a0,0x6
    1110:	22c50513          	addi	a0,a0,556 # 7338 <malloc+0x71c>
    1114:	00005097          	auipc	ra,0x5
    1118:	6f2080e7          	jalr	1778(ra) # 6806 <open>
    111c:	84aa                	mv	s1,a0
  if(fd < 0){
    111e:	12054063          	bltz	a0,123e <linktest+0x1e0>
  if(read(fd, buf, sizeof(buf)) != SZ){
    1122:	660d                	lui	a2,0x3
    1124:	0000d597          	auipc	a1,0xd
    1128:	b5458593          	addi	a1,a1,-1196 # dc78 <buf>
    112c:	00005097          	auipc	ra,0x5
    1130:	6b2080e7          	jalr	1714(ra) # 67de <read>
    1134:	4795                	li	a5,5
    1136:	12f51663          	bne	a0,a5,1262 <linktest+0x204>
  close(fd);
    113a:	8526                	mv	a0,s1
    113c:	00005097          	auipc	ra,0x5
    1140:	6b2080e7          	jalr	1714(ra) # 67ee <close>
  if(link("lf2", "lf2") >= 0){
    1144:	00006597          	auipc	a1,0x6
    1148:	1f458593          	addi	a1,a1,500 # 7338 <malloc+0x71c>
    114c:	852e                	mv	a0,a1
    114e:	00005097          	auipc	ra,0x5
    1152:	6d8080e7          	jalr	1752(ra) # 6826 <link>
    1156:	12055863          	bgez	a0,1286 <linktest+0x228>
  unlink("lf2");
    115a:	00006517          	auipc	a0,0x6
    115e:	1de50513          	addi	a0,a0,478 # 7338 <malloc+0x71c>
    1162:	00005097          	auipc	ra,0x5
    1166:	6b4080e7          	jalr	1716(ra) # 6816 <unlink>
  if(link("lf2", "lf1") >= 0){
    116a:	00006597          	auipc	a1,0x6
    116e:	1c658593          	addi	a1,a1,454 # 7330 <malloc+0x714>
    1172:	00006517          	auipc	a0,0x6
    1176:	1c650513          	addi	a0,a0,454 # 7338 <malloc+0x71c>
    117a:	00005097          	auipc	ra,0x5
    117e:	6ac080e7          	jalr	1708(ra) # 6826 <link>
    1182:	12055463          	bgez	a0,12aa <linktest+0x24c>
  if(link(".", "lf1") >= 0){
    1186:	00006597          	auipc	a1,0x6
    118a:	1aa58593          	addi	a1,a1,426 # 7330 <malloc+0x714>
    118e:	00006517          	auipc	a0,0x6
    1192:	2b250513          	addi	a0,a0,690 # 7440 <malloc+0x824>
    1196:	00005097          	auipc	ra,0x5
    119a:	690080e7          	jalr	1680(ra) # 6826 <link>
    119e:	12055863          	bgez	a0,12ce <linktest+0x270>
}
    11a2:	60e2                	ld	ra,24(sp)
    11a4:	6442                	ld	s0,16(sp)
    11a6:	64a2                	ld	s1,8(sp)
    11a8:	6902                	ld	s2,0(sp)
    11aa:	6105                	addi	sp,sp,32
    11ac:	8082                	ret
    printf("%s: create lf1 failed\n", s);
    11ae:	85ca                	mv	a1,s2
    11b0:	00006517          	auipc	a0,0x6
    11b4:	19050513          	addi	a0,a0,400 # 7340 <malloc+0x724>
    11b8:	00006097          	auipc	ra,0x6
    11bc:	9a6080e7          	jalr	-1626(ra) # 6b5e <printf>
    exit(1,"");
    11c0:	00007597          	auipc	a1,0x7
    11c4:	18858593          	addi	a1,a1,392 # 8348 <malloc+0x172c>
    11c8:	4505                	li	a0,1
    11ca:	00005097          	auipc	ra,0x5
    11ce:	5fc080e7          	jalr	1532(ra) # 67c6 <exit>
    printf("%s: write lf1 failed\n", s);
    11d2:	85ca                	mv	a1,s2
    11d4:	00006517          	auipc	a0,0x6
    11d8:	18450513          	addi	a0,a0,388 # 7358 <malloc+0x73c>
    11dc:	00006097          	auipc	ra,0x6
    11e0:	982080e7          	jalr	-1662(ra) # 6b5e <printf>
    exit(1,"");
    11e4:	00007597          	auipc	a1,0x7
    11e8:	16458593          	addi	a1,a1,356 # 8348 <malloc+0x172c>
    11ec:	4505                	li	a0,1
    11ee:	00005097          	auipc	ra,0x5
    11f2:	5d8080e7          	jalr	1496(ra) # 67c6 <exit>
    printf("%s: link lf1 lf2 failed\n", s);
    11f6:	85ca                	mv	a1,s2
    11f8:	00006517          	auipc	a0,0x6
    11fc:	17850513          	addi	a0,a0,376 # 7370 <malloc+0x754>
    1200:	00006097          	auipc	ra,0x6
    1204:	95e080e7          	jalr	-1698(ra) # 6b5e <printf>
    exit(1,"");
    1208:	00007597          	auipc	a1,0x7
    120c:	14058593          	addi	a1,a1,320 # 8348 <malloc+0x172c>
    1210:	4505                	li	a0,1
    1212:	00005097          	auipc	ra,0x5
    1216:	5b4080e7          	jalr	1460(ra) # 67c6 <exit>
    printf("%s: unlinked lf1 but it is still there!\n", s);
    121a:	85ca                	mv	a1,s2
    121c:	00006517          	auipc	a0,0x6
    1220:	17450513          	addi	a0,a0,372 # 7390 <malloc+0x774>
    1224:	00006097          	auipc	ra,0x6
    1228:	93a080e7          	jalr	-1734(ra) # 6b5e <printf>
    exit(1,"");
    122c:	00007597          	auipc	a1,0x7
    1230:	11c58593          	addi	a1,a1,284 # 8348 <malloc+0x172c>
    1234:	4505                	li	a0,1
    1236:	00005097          	auipc	ra,0x5
    123a:	590080e7          	jalr	1424(ra) # 67c6 <exit>
    printf("%s: open lf2 failed\n", s);
    123e:	85ca                	mv	a1,s2
    1240:	00006517          	auipc	a0,0x6
    1244:	18050513          	addi	a0,a0,384 # 73c0 <malloc+0x7a4>
    1248:	00006097          	auipc	ra,0x6
    124c:	916080e7          	jalr	-1770(ra) # 6b5e <printf>
    exit(1,"");
    1250:	00007597          	auipc	a1,0x7
    1254:	0f858593          	addi	a1,a1,248 # 8348 <malloc+0x172c>
    1258:	4505                	li	a0,1
    125a:	00005097          	auipc	ra,0x5
    125e:	56c080e7          	jalr	1388(ra) # 67c6 <exit>
    printf("%s: read lf2 failed\n", s);
    1262:	85ca                	mv	a1,s2
    1264:	00006517          	auipc	a0,0x6
    1268:	17450513          	addi	a0,a0,372 # 73d8 <malloc+0x7bc>
    126c:	00006097          	auipc	ra,0x6
    1270:	8f2080e7          	jalr	-1806(ra) # 6b5e <printf>
    exit(1,"");
    1274:	00007597          	auipc	a1,0x7
    1278:	0d458593          	addi	a1,a1,212 # 8348 <malloc+0x172c>
    127c:	4505                	li	a0,1
    127e:	00005097          	auipc	ra,0x5
    1282:	548080e7          	jalr	1352(ra) # 67c6 <exit>
    printf("%s: link lf2 lf2 succeeded! oops\n", s);
    1286:	85ca                	mv	a1,s2
    1288:	00006517          	auipc	a0,0x6
    128c:	16850513          	addi	a0,a0,360 # 73f0 <malloc+0x7d4>
    1290:	00006097          	auipc	ra,0x6
    1294:	8ce080e7          	jalr	-1842(ra) # 6b5e <printf>
    exit(1,"");
    1298:	00007597          	auipc	a1,0x7
    129c:	0b058593          	addi	a1,a1,176 # 8348 <malloc+0x172c>
    12a0:	4505                	li	a0,1
    12a2:	00005097          	auipc	ra,0x5
    12a6:	524080e7          	jalr	1316(ra) # 67c6 <exit>
    printf("%s: link non-existent succeeded! oops\n", s);
    12aa:	85ca                	mv	a1,s2
    12ac:	00006517          	auipc	a0,0x6
    12b0:	16c50513          	addi	a0,a0,364 # 7418 <malloc+0x7fc>
    12b4:	00006097          	auipc	ra,0x6
    12b8:	8aa080e7          	jalr	-1878(ra) # 6b5e <printf>
    exit(1,"");
    12bc:	00007597          	auipc	a1,0x7
    12c0:	08c58593          	addi	a1,a1,140 # 8348 <malloc+0x172c>
    12c4:	4505                	li	a0,1
    12c6:	00005097          	auipc	ra,0x5
    12ca:	500080e7          	jalr	1280(ra) # 67c6 <exit>
    printf("%s: link . lf1 succeeded! oops\n", s);
    12ce:	85ca                	mv	a1,s2
    12d0:	00006517          	auipc	a0,0x6
    12d4:	17850513          	addi	a0,a0,376 # 7448 <malloc+0x82c>
    12d8:	00006097          	auipc	ra,0x6
    12dc:	886080e7          	jalr	-1914(ra) # 6b5e <printf>
    exit(1,"");
    12e0:	00007597          	auipc	a1,0x7
    12e4:	06858593          	addi	a1,a1,104 # 8348 <malloc+0x172c>
    12e8:	4505                	li	a0,1
    12ea:	00005097          	auipc	ra,0x5
    12ee:	4dc080e7          	jalr	1244(ra) # 67c6 <exit>

00000000000012f2 <validatetest>:
{
    12f2:	7139                	addi	sp,sp,-64
    12f4:	fc06                	sd	ra,56(sp)
    12f6:	f822                	sd	s0,48(sp)
    12f8:	f426                	sd	s1,40(sp)
    12fa:	f04a                	sd	s2,32(sp)
    12fc:	ec4e                	sd	s3,24(sp)
    12fe:	e852                	sd	s4,16(sp)
    1300:	e456                	sd	s5,8(sp)
    1302:	e05a                	sd	s6,0(sp)
    1304:	0080                	addi	s0,sp,64
    1306:	8b2a                	mv	s6,a0
  for(p = 0; p <= (uint)hi; p += PGSIZE){
    1308:	4481                	li	s1,0
    if(link("nosuchfile", (char*)p) != -1){
    130a:	00006997          	auipc	s3,0x6
    130e:	15e98993          	addi	s3,s3,350 # 7468 <malloc+0x84c>
    1312:	597d                	li	s2,-1
  for(p = 0; p <= (uint)hi; p += PGSIZE){
    1314:	6a85                	lui	s5,0x1
    1316:	00114a37          	lui	s4,0x114
    if(link("nosuchfile", (char*)p) != -1){
    131a:	85a6                	mv	a1,s1
    131c:	854e                	mv	a0,s3
    131e:	00005097          	auipc	ra,0x5
    1322:	508080e7          	jalr	1288(ra) # 6826 <link>
    1326:	01251f63          	bne	a0,s2,1344 <validatetest+0x52>
  for(p = 0; p <= (uint)hi; p += PGSIZE){
    132a:	94d6                	add	s1,s1,s5
    132c:	ff4497e3          	bne	s1,s4,131a <validatetest+0x28>
}
    1330:	70e2                	ld	ra,56(sp)
    1332:	7442                	ld	s0,48(sp)
    1334:	74a2                	ld	s1,40(sp)
    1336:	7902                	ld	s2,32(sp)
    1338:	69e2                	ld	s3,24(sp)
    133a:	6a42                	ld	s4,16(sp)
    133c:	6aa2                	ld	s5,8(sp)
    133e:	6b02                	ld	s6,0(sp)
    1340:	6121                	addi	sp,sp,64
    1342:	8082                	ret
      printf("%s: link should not succeed\n", s);
    1344:	85da                	mv	a1,s6
    1346:	00006517          	auipc	a0,0x6
    134a:	13250513          	addi	a0,a0,306 # 7478 <malloc+0x85c>
    134e:	00006097          	auipc	ra,0x6
    1352:	810080e7          	jalr	-2032(ra) # 6b5e <printf>
      exit(1,"");
    1356:	00007597          	auipc	a1,0x7
    135a:	ff258593          	addi	a1,a1,-14 # 8348 <malloc+0x172c>
    135e:	4505                	li	a0,1
    1360:	00005097          	auipc	ra,0x5
    1364:	466080e7          	jalr	1126(ra) # 67c6 <exit>

0000000000001368 <bigdir>:
{
    1368:	715d                	addi	sp,sp,-80
    136a:	e486                	sd	ra,72(sp)
    136c:	e0a2                	sd	s0,64(sp)
    136e:	fc26                	sd	s1,56(sp)
    1370:	f84a                	sd	s2,48(sp)
    1372:	f44e                	sd	s3,40(sp)
    1374:	f052                	sd	s4,32(sp)
    1376:	ec56                	sd	s5,24(sp)
    1378:	e85a                	sd	s6,16(sp)
    137a:	0880                	addi	s0,sp,80
    137c:	89aa                	mv	s3,a0
  unlink("bd");
    137e:	00006517          	auipc	a0,0x6
    1382:	11a50513          	addi	a0,a0,282 # 7498 <malloc+0x87c>
    1386:	00005097          	auipc	ra,0x5
    138a:	490080e7          	jalr	1168(ra) # 6816 <unlink>
  fd = open("bd", O_CREATE);
    138e:	20000593          	li	a1,512
    1392:	00006517          	auipc	a0,0x6
    1396:	10650513          	addi	a0,a0,262 # 7498 <malloc+0x87c>
    139a:	00005097          	auipc	ra,0x5
    139e:	46c080e7          	jalr	1132(ra) # 6806 <open>
  if(fd < 0){
    13a2:	0c054963          	bltz	a0,1474 <bigdir+0x10c>
  close(fd);
    13a6:	00005097          	auipc	ra,0x5
    13aa:	448080e7          	jalr	1096(ra) # 67ee <close>
  for(i = 0; i < N; i++){
    13ae:	4901                	li	s2,0
    name[0] = 'x';
    13b0:	07800a93          	li	s5,120
    if(link("bd", name) != 0){
    13b4:	00006a17          	auipc	s4,0x6
    13b8:	0e4a0a13          	addi	s4,s4,228 # 7498 <malloc+0x87c>
  for(i = 0; i < N; i++){
    13bc:	1f400b13          	li	s6,500
    name[0] = 'x';
    13c0:	fb540823          	sb	s5,-80(s0)
    name[1] = '0' + (i / 64);
    13c4:	41f9579b          	sraiw	a5,s2,0x1f
    13c8:	01a7d71b          	srliw	a4,a5,0x1a
    13cc:	012707bb          	addw	a5,a4,s2
    13d0:	4067d69b          	sraiw	a3,a5,0x6
    13d4:	0306869b          	addiw	a3,a3,48
    13d8:	fad408a3          	sb	a3,-79(s0)
    name[2] = '0' + (i % 64);
    13dc:	03f7f793          	andi	a5,a5,63
    13e0:	9f99                	subw	a5,a5,a4
    13e2:	0307879b          	addiw	a5,a5,48
    13e6:	faf40923          	sb	a5,-78(s0)
    name[3] = '\0';
    13ea:	fa0409a3          	sb	zero,-77(s0)
    if(link("bd", name) != 0){
    13ee:	fb040593          	addi	a1,s0,-80
    13f2:	8552                	mv	a0,s4
    13f4:	00005097          	auipc	ra,0x5
    13f8:	432080e7          	jalr	1074(ra) # 6826 <link>
    13fc:	84aa                	mv	s1,a0
    13fe:	ed49                	bnez	a0,1498 <bigdir+0x130>
  for(i = 0; i < N; i++){
    1400:	2905                	addiw	s2,s2,1
    1402:	fb691fe3          	bne	s2,s6,13c0 <bigdir+0x58>
  unlink("bd");
    1406:	00006517          	auipc	a0,0x6
    140a:	09250513          	addi	a0,a0,146 # 7498 <malloc+0x87c>
    140e:	00005097          	auipc	ra,0x5
    1412:	408080e7          	jalr	1032(ra) # 6816 <unlink>
    name[0] = 'x';
    1416:	07800913          	li	s2,120
  for(i = 0; i < N; i++){
    141a:	1f400a13          	li	s4,500
    name[0] = 'x';
    141e:	fb240823          	sb	s2,-80(s0)
    name[1] = '0' + (i / 64);
    1422:	41f4d79b          	sraiw	a5,s1,0x1f
    1426:	01a7d71b          	srliw	a4,a5,0x1a
    142a:	009707bb          	addw	a5,a4,s1
    142e:	4067d69b          	sraiw	a3,a5,0x6
    1432:	0306869b          	addiw	a3,a3,48
    1436:	fad408a3          	sb	a3,-79(s0)
    name[2] = '0' + (i % 64);
    143a:	03f7f793          	andi	a5,a5,63
    143e:	9f99                	subw	a5,a5,a4
    1440:	0307879b          	addiw	a5,a5,48
    1444:	faf40923          	sb	a5,-78(s0)
    name[3] = '\0';
    1448:	fa0409a3          	sb	zero,-77(s0)
    if(unlink(name) != 0){
    144c:	fb040513          	addi	a0,s0,-80
    1450:	00005097          	auipc	ra,0x5
    1454:	3c6080e7          	jalr	966(ra) # 6816 <unlink>
    1458:	e525                	bnez	a0,14c0 <bigdir+0x158>
  for(i = 0; i < N; i++){
    145a:	2485                	addiw	s1,s1,1
    145c:	fd4491e3          	bne	s1,s4,141e <bigdir+0xb6>
}
    1460:	60a6                	ld	ra,72(sp)
    1462:	6406                	ld	s0,64(sp)
    1464:	74e2                	ld	s1,56(sp)
    1466:	7942                	ld	s2,48(sp)
    1468:	79a2                	ld	s3,40(sp)
    146a:	7a02                	ld	s4,32(sp)
    146c:	6ae2                	ld	s5,24(sp)
    146e:	6b42                	ld	s6,16(sp)
    1470:	6161                	addi	sp,sp,80
    1472:	8082                	ret
    printf("%s: bigdir create failed\n", s);
    1474:	85ce                	mv	a1,s3
    1476:	00006517          	auipc	a0,0x6
    147a:	02a50513          	addi	a0,a0,42 # 74a0 <malloc+0x884>
    147e:	00005097          	auipc	ra,0x5
    1482:	6e0080e7          	jalr	1760(ra) # 6b5e <printf>
    exit(1,"");
    1486:	00007597          	auipc	a1,0x7
    148a:	ec258593          	addi	a1,a1,-318 # 8348 <malloc+0x172c>
    148e:	4505                	li	a0,1
    1490:	00005097          	auipc	ra,0x5
    1494:	336080e7          	jalr	822(ra) # 67c6 <exit>
      printf("%s: bigdir link(bd, %s) failed\n", s, name);
    1498:	fb040613          	addi	a2,s0,-80
    149c:	85ce                	mv	a1,s3
    149e:	00006517          	auipc	a0,0x6
    14a2:	02250513          	addi	a0,a0,34 # 74c0 <malloc+0x8a4>
    14a6:	00005097          	auipc	ra,0x5
    14aa:	6b8080e7          	jalr	1720(ra) # 6b5e <printf>
      exit(1,"");
    14ae:	00007597          	auipc	a1,0x7
    14b2:	e9a58593          	addi	a1,a1,-358 # 8348 <malloc+0x172c>
    14b6:	4505                	li	a0,1
    14b8:	00005097          	auipc	ra,0x5
    14bc:	30e080e7          	jalr	782(ra) # 67c6 <exit>
      printf("%s: bigdir unlink failed", s);
    14c0:	85ce                	mv	a1,s3
    14c2:	00006517          	auipc	a0,0x6
    14c6:	01e50513          	addi	a0,a0,30 # 74e0 <malloc+0x8c4>
    14ca:	00005097          	auipc	ra,0x5
    14ce:	694080e7          	jalr	1684(ra) # 6b5e <printf>
      exit(1,"");
    14d2:	00007597          	auipc	a1,0x7
    14d6:	e7658593          	addi	a1,a1,-394 # 8348 <malloc+0x172c>
    14da:	4505                	li	a0,1
    14dc:	00005097          	auipc	ra,0x5
    14e0:	2ea080e7          	jalr	746(ra) # 67c6 <exit>

00000000000014e4 <pgbug>:
{
    14e4:	7179                	addi	sp,sp,-48
    14e6:	f406                	sd	ra,40(sp)
    14e8:	f022                	sd	s0,32(sp)
    14ea:	ec26                	sd	s1,24(sp)
    14ec:	1800                	addi	s0,sp,48
  argv[0] = 0;
    14ee:	fc043c23          	sd	zero,-40(s0)
  exec(big, argv);
    14f2:	00009497          	auipc	s1,0x9
    14f6:	b0e48493          	addi	s1,s1,-1266 # a000 <big>
    14fa:	fd840593          	addi	a1,s0,-40
    14fe:	6088                	ld	a0,0(s1)
    1500:	00005097          	auipc	ra,0x5
    1504:	2fe080e7          	jalr	766(ra) # 67fe <exec>
  pipe(big);
    1508:	6088                	ld	a0,0(s1)
    150a:	00005097          	auipc	ra,0x5
    150e:	2cc080e7          	jalr	716(ra) # 67d6 <pipe>
  exit(0,"");
    1512:	00007597          	auipc	a1,0x7
    1516:	e3658593          	addi	a1,a1,-458 # 8348 <malloc+0x172c>
    151a:	4501                	li	a0,0
    151c:	00005097          	auipc	ra,0x5
    1520:	2aa080e7          	jalr	682(ra) # 67c6 <exit>

0000000000001524 <badarg>:
{
    1524:	7139                	addi	sp,sp,-64
    1526:	fc06                	sd	ra,56(sp)
    1528:	f822                	sd	s0,48(sp)
    152a:	f426                	sd	s1,40(sp)
    152c:	f04a                	sd	s2,32(sp)
    152e:	ec4e                	sd	s3,24(sp)
    1530:	0080                	addi	s0,sp,64
    1532:	64b1                	lui	s1,0xc
    1534:	35048493          	addi	s1,s1,848 # c350 <uninit+0xde8>
    argv[0] = (char*)0xffffffff;
    1538:	597d                	li	s2,-1
    153a:	02095913          	srli	s2,s2,0x20
    exec("echo", argv);
    153e:	00006997          	auipc	s3,0x6
    1542:	81a98993          	addi	s3,s3,-2022 # 6d58 <malloc+0x13c>
    argv[0] = (char*)0xffffffff;
    1546:	fd243023          	sd	s2,-64(s0)
    argv[1] = 0;
    154a:	fc043423          	sd	zero,-56(s0)
    exec("echo", argv);
    154e:	fc040593          	addi	a1,s0,-64
    1552:	854e                	mv	a0,s3
    1554:	00005097          	auipc	ra,0x5
    1558:	2aa080e7          	jalr	682(ra) # 67fe <exec>
  for(int i = 0; i < 50000; i++){
    155c:	34fd                	addiw	s1,s1,-1
    155e:	f4e5                	bnez	s1,1546 <badarg+0x22>
  exit(0,"");
    1560:	00007597          	auipc	a1,0x7
    1564:	de858593          	addi	a1,a1,-536 # 8348 <malloc+0x172c>
    1568:	4501                	li	a0,0
    156a:	00005097          	auipc	ra,0x5
    156e:	25c080e7          	jalr	604(ra) # 67c6 <exit>

0000000000001572 <copyinstr2>:
{
    1572:	7155                	addi	sp,sp,-208
    1574:	e586                	sd	ra,200(sp)
    1576:	e1a2                	sd	s0,192(sp)
    1578:	0980                	addi	s0,sp,208
  for(int i = 0; i < MAXPATH; i++)
    157a:	f6840793          	addi	a5,s0,-152
    157e:	fe840693          	addi	a3,s0,-24
    b[i] = 'x';
    1582:	07800713          	li	a4,120
    1586:	00e78023          	sb	a4,0(a5)
  for(int i = 0; i < MAXPATH; i++)
    158a:	0785                	addi	a5,a5,1
    158c:	fed79de3          	bne	a5,a3,1586 <copyinstr2+0x14>
  b[MAXPATH] = '\0';
    1590:	fe040423          	sb	zero,-24(s0)
  int ret = unlink(b);
    1594:	f6840513          	addi	a0,s0,-152
    1598:	00005097          	auipc	ra,0x5
    159c:	27e080e7          	jalr	638(ra) # 6816 <unlink>
  if(ret != -1){
    15a0:	57fd                	li	a5,-1
    15a2:	0ef51463          	bne	a0,a5,168a <copyinstr2+0x118>
  int fd = open(b, O_CREATE | O_WRONLY);
    15a6:	20100593          	li	a1,513
    15aa:	f6840513          	addi	a0,s0,-152
    15ae:	00005097          	auipc	ra,0x5
    15b2:	258080e7          	jalr	600(ra) # 6806 <open>
  if(fd != -1){
    15b6:	57fd                	li	a5,-1
    15b8:	0ef51d63          	bne	a0,a5,16b2 <copyinstr2+0x140>
  ret = link(b, b);
    15bc:	f6840593          	addi	a1,s0,-152
    15c0:	852e                	mv	a0,a1
    15c2:	00005097          	auipc	ra,0x5
    15c6:	264080e7          	jalr	612(ra) # 6826 <link>
  if(ret != -1){
    15ca:	57fd                	li	a5,-1
    15cc:	10f51763          	bne	a0,a5,16da <copyinstr2+0x168>
  char *args[] = { "xx", 0 };
    15d0:	00007797          	auipc	a5,0x7
    15d4:	16878793          	addi	a5,a5,360 # 8738 <malloc+0x1b1c>
    15d8:	f4f43c23          	sd	a5,-168(s0)
    15dc:	f6043023          	sd	zero,-160(s0)
  ret = exec(b, args);
    15e0:	f5840593          	addi	a1,s0,-168
    15e4:	f6840513          	addi	a0,s0,-152
    15e8:	00005097          	auipc	ra,0x5
    15ec:	216080e7          	jalr	534(ra) # 67fe <exec>
  if(ret != -1){
    15f0:	57fd                	li	a5,-1
    15f2:	10f51963          	bne	a0,a5,1704 <copyinstr2+0x192>
  int pid = fork();
    15f6:	00005097          	auipc	ra,0x5
    15fa:	1c8080e7          	jalr	456(ra) # 67be <fork>
  if(pid < 0){
    15fe:	12054763          	bltz	a0,172c <copyinstr2+0x1ba>
  if(pid == 0){
    1602:	16051063          	bnez	a0,1762 <copyinstr2+0x1f0>
    1606:	00009797          	auipc	a5,0x9
    160a:	f5a78793          	addi	a5,a5,-166 # a560 <big.0>
    160e:	0000a697          	auipc	a3,0xa
    1612:	f5268693          	addi	a3,a3,-174 # b560 <big.0+0x1000>
      big[i] = 'x';
    1616:	07800713          	li	a4,120
    161a:	00e78023          	sb	a4,0(a5)
    for(int i = 0; i < PGSIZE; i++)
    161e:	0785                	addi	a5,a5,1
    1620:	fed79de3          	bne	a5,a3,161a <copyinstr2+0xa8>
    big[PGSIZE] = '\0';
    1624:	0000a797          	auipc	a5,0xa
    1628:	f2078e23          	sb	zero,-196(a5) # b560 <big.0+0x1000>
    char *args2[] = { big, big, big, 0 };
    162c:	00008797          	auipc	a5,0x8
    1630:	b2c78793          	addi	a5,a5,-1236 # 9158 <malloc+0x253c>
    1634:	6390                	ld	a2,0(a5)
    1636:	6794                	ld	a3,8(a5)
    1638:	6b98                	ld	a4,16(a5)
    163a:	6f9c                	ld	a5,24(a5)
    163c:	f2c43823          	sd	a2,-208(s0)
    1640:	f2d43c23          	sd	a3,-200(s0)
    1644:	f4e43023          	sd	a4,-192(s0)
    1648:	f4f43423          	sd	a5,-184(s0)
    ret = exec("echo", args2);
    164c:	f3040593          	addi	a1,s0,-208
    1650:	00005517          	auipc	a0,0x5
    1654:	70850513          	addi	a0,a0,1800 # 6d58 <malloc+0x13c>
    1658:	00005097          	auipc	ra,0x5
    165c:	1a6080e7          	jalr	422(ra) # 67fe <exec>
    if(ret != -1){
    1660:	57fd                	li	a5,-1
    1662:	0ef50663          	beq	a0,a5,174e <copyinstr2+0x1dc>
      printf("exec(echo, BIG) returned %d, not -1\n", fd);
    1666:	55fd                	li	a1,-1
    1668:	00006517          	auipc	a0,0x6
    166c:	f2050513          	addi	a0,a0,-224 # 7588 <malloc+0x96c>
    1670:	00005097          	auipc	ra,0x5
    1674:	4ee080e7          	jalr	1262(ra) # 6b5e <printf>
      exit(1,"");
    1678:	00007597          	auipc	a1,0x7
    167c:	cd058593          	addi	a1,a1,-816 # 8348 <malloc+0x172c>
    1680:	4505                	li	a0,1
    1682:	00005097          	auipc	ra,0x5
    1686:	144080e7          	jalr	324(ra) # 67c6 <exit>
    printf("unlink(%s) returned %d, not -1\n", b, ret);
    168a:	862a                	mv	a2,a0
    168c:	f6840593          	addi	a1,s0,-152
    1690:	00006517          	auipc	a0,0x6
    1694:	e7050513          	addi	a0,a0,-400 # 7500 <malloc+0x8e4>
    1698:	00005097          	auipc	ra,0x5
    169c:	4c6080e7          	jalr	1222(ra) # 6b5e <printf>
    exit(1,"");
    16a0:	00007597          	auipc	a1,0x7
    16a4:	ca858593          	addi	a1,a1,-856 # 8348 <malloc+0x172c>
    16a8:	4505                	li	a0,1
    16aa:	00005097          	auipc	ra,0x5
    16ae:	11c080e7          	jalr	284(ra) # 67c6 <exit>
    printf("open(%s) returned %d, not -1\n", b, fd);
    16b2:	862a                	mv	a2,a0
    16b4:	f6840593          	addi	a1,s0,-152
    16b8:	00006517          	auipc	a0,0x6
    16bc:	e6850513          	addi	a0,a0,-408 # 7520 <malloc+0x904>
    16c0:	00005097          	auipc	ra,0x5
    16c4:	49e080e7          	jalr	1182(ra) # 6b5e <printf>
    exit(1,"");
    16c8:	00007597          	auipc	a1,0x7
    16cc:	c8058593          	addi	a1,a1,-896 # 8348 <malloc+0x172c>
    16d0:	4505                	li	a0,1
    16d2:	00005097          	auipc	ra,0x5
    16d6:	0f4080e7          	jalr	244(ra) # 67c6 <exit>
    printf("link(%s, %s) returned %d, not -1\n", b, b, ret);
    16da:	86aa                	mv	a3,a0
    16dc:	f6840613          	addi	a2,s0,-152
    16e0:	85b2                	mv	a1,a2
    16e2:	00006517          	auipc	a0,0x6
    16e6:	e5e50513          	addi	a0,a0,-418 # 7540 <malloc+0x924>
    16ea:	00005097          	auipc	ra,0x5
    16ee:	474080e7          	jalr	1140(ra) # 6b5e <printf>
    exit(1,"");
    16f2:	00007597          	auipc	a1,0x7
    16f6:	c5658593          	addi	a1,a1,-938 # 8348 <malloc+0x172c>
    16fa:	4505                	li	a0,1
    16fc:	00005097          	auipc	ra,0x5
    1700:	0ca080e7          	jalr	202(ra) # 67c6 <exit>
    printf("exec(%s) returned %d, not -1\n", b, fd);
    1704:	567d                	li	a2,-1
    1706:	f6840593          	addi	a1,s0,-152
    170a:	00006517          	auipc	a0,0x6
    170e:	e5e50513          	addi	a0,a0,-418 # 7568 <malloc+0x94c>
    1712:	00005097          	auipc	ra,0x5
    1716:	44c080e7          	jalr	1100(ra) # 6b5e <printf>
    exit(1,"");
    171a:	00007597          	auipc	a1,0x7
    171e:	c2e58593          	addi	a1,a1,-978 # 8348 <malloc+0x172c>
    1722:	4505                	li	a0,1
    1724:	00005097          	auipc	ra,0x5
    1728:	0a2080e7          	jalr	162(ra) # 67c6 <exit>
    printf("fork failed\n");
    172c:	00006517          	auipc	a0,0x6
    1730:	2bc50513          	addi	a0,a0,700 # 79e8 <malloc+0xdcc>
    1734:	00005097          	auipc	ra,0x5
    1738:	42a080e7          	jalr	1066(ra) # 6b5e <printf>
    exit(1,"");
    173c:	00007597          	auipc	a1,0x7
    1740:	c0c58593          	addi	a1,a1,-1012 # 8348 <malloc+0x172c>
    1744:	4505                	li	a0,1
    1746:	00005097          	auipc	ra,0x5
    174a:	080080e7          	jalr	128(ra) # 67c6 <exit>
    exit(747,""); // OK
    174e:	00007597          	auipc	a1,0x7
    1752:	bfa58593          	addi	a1,a1,-1030 # 8348 <malloc+0x172c>
    1756:	2eb00513          	li	a0,747
    175a:	00005097          	auipc	ra,0x5
    175e:	06c080e7          	jalr	108(ra) # 67c6 <exit>
  int st = 0;
    1762:	f4042a23          	sw	zero,-172(s0)
  wait(&st,"");
    1766:	00007597          	auipc	a1,0x7
    176a:	be258593          	addi	a1,a1,-1054 # 8348 <malloc+0x172c>
    176e:	f5440513          	addi	a0,s0,-172
    1772:	00005097          	auipc	ra,0x5
    1776:	05c080e7          	jalr	92(ra) # 67ce <wait>
  if(st != 747){
    177a:	f5442703          	lw	a4,-172(s0)
    177e:	2eb00793          	li	a5,747
    1782:	00f71663          	bne	a4,a5,178e <copyinstr2+0x21c>
}
    1786:	60ae                	ld	ra,200(sp)
    1788:	640e                	ld	s0,192(sp)
    178a:	6169                	addi	sp,sp,208
    178c:	8082                	ret
    printf("exec(echo, BIG) succeeded, should have failed\n");
    178e:	00006517          	auipc	a0,0x6
    1792:	e2250513          	addi	a0,a0,-478 # 75b0 <malloc+0x994>
    1796:	00005097          	auipc	ra,0x5
    179a:	3c8080e7          	jalr	968(ra) # 6b5e <printf>
    exit(1,"");
    179e:	00007597          	auipc	a1,0x7
    17a2:	baa58593          	addi	a1,a1,-1110 # 8348 <malloc+0x172c>
    17a6:	4505                	li	a0,1
    17a8:	00005097          	auipc	ra,0x5
    17ac:	01e080e7          	jalr	30(ra) # 67c6 <exit>

00000000000017b0 <truncate3>:
{
    17b0:	7159                	addi	sp,sp,-112
    17b2:	f486                	sd	ra,104(sp)
    17b4:	f0a2                	sd	s0,96(sp)
    17b6:	eca6                	sd	s1,88(sp)
    17b8:	e8ca                	sd	s2,80(sp)
    17ba:	e4ce                	sd	s3,72(sp)
    17bc:	e0d2                	sd	s4,64(sp)
    17be:	fc56                	sd	s5,56(sp)
    17c0:	1880                	addi	s0,sp,112
    17c2:	892a                	mv	s2,a0
  close(open("truncfile", O_CREATE|O_TRUNC|O_WRONLY));
    17c4:	60100593          	li	a1,1537
    17c8:	00005517          	auipc	a0,0x5
    17cc:	5e850513          	addi	a0,a0,1512 # 6db0 <malloc+0x194>
    17d0:	00005097          	auipc	ra,0x5
    17d4:	036080e7          	jalr	54(ra) # 6806 <open>
    17d8:	00005097          	auipc	ra,0x5
    17dc:	016080e7          	jalr	22(ra) # 67ee <close>
  pid = fork();
    17e0:	00005097          	auipc	ra,0x5
    17e4:	fde080e7          	jalr	-34(ra) # 67be <fork>
  if(pid < 0){
    17e8:	08054463          	bltz	a0,1870 <truncate3+0xc0>
  if(pid == 0){
    17ec:	e96d                	bnez	a0,18de <truncate3+0x12e>
    17ee:	06400993          	li	s3,100
      int fd = open("truncfile", O_WRONLY);
    17f2:	00005a17          	auipc	s4,0x5
    17f6:	5bea0a13          	addi	s4,s4,1470 # 6db0 <malloc+0x194>
      int n = write(fd, "1234567890", 10);
    17fa:	00006a97          	auipc	s5,0x6
    17fe:	e16a8a93          	addi	s5,s5,-490 # 7610 <malloc+0x9f4>
      int fd = open("truncfile", O_WRONLY);
    1802:	4585                	li	a1,1
    1804:	8552                	mv	a0,s4
    1806:	00005097          	auipc	ra,0x5
    180a:	000080e7          	jalr	ra # 6806 <open>
    180e:	84aa                	mv	s1,a0
      if(fd < 0){
    1810:	08054263          	bltz	a0,1894 <truncate3+0xe4>
      int n = write(fd, "1234567890", 10);
    1814:	4629                	li	a2,10
    1816:	85d6                	mv	a1,s5
    1818:	00005097          	auipc	ra,0x5
    181c:	fce080e7          	jalr	-50(ra) # 67e6 <write>
      if(n != 10){
    1820:	47a9                	li	a5,10
    1822:	08f51b63          	bne	a0,a5,18b8 <truncate3+0x108>
      close(fd);
    1826:	8526                	mv	a0,s1
    1828:	00005097          	auipc	ra,0x5
    182c:	fc6080e7          	jalr	-58(ra) # 67ee <close>
      fd = open("truncfile", O_RDONLY);
    1830:	4581                	li	a1,0
    1832:	8552                	mv	a0,s4
    1834:	00005097          	auipc	ra,0x5
    1838:	fd2080e7          	jalr	-46(ra) # 6806 <open>
    183c:	84aa                	mv	s1,a0
      read(fd, buf, sizeof(buf));
    183e:	02000613          	li	a2,32
    1842:	f9840593          	addi	a1,s0,-104
    1846:	00005097          	auipc	ra,0x5
    184a:	f98080e7          	jalr	-104(ra) # 67de <read>
      close(fd);
    184e:	8526                	mv	a0,s1
    1850:	00005097          	auipc	ra,0x5
    1854:	f9e080e7          	jalr	-98(ra) # 67ee <close>
    for(int i = 0; i < 100; i++){
    1858:	39fd                	addiw	s3,s3,-1
    185a:	fa0994e3          	bnez	s3,1802 <truncate3+0x52>
    exit(0,"");
    185e:	00007597          	auipc	a1,0x7
    1862:	aea58593          	addi	a1,a1,-1302 # 8348 <malloc+0x172c>
    1866:	4501                	li	a0,0
    1868:	00005097          	auipc	ra,0x5
    186c:	f5e080e7          	jalr	-162(ra) # 67c6 <exit>
    printf("%s: fork failed\n", s);
    1870:	85ca                	mv	a1,s2
    1872:	00006517          	auipc	a0,0x6
    1876:	d6e50513          	addi	a0,a0,-658 # 75e0 <malloc+0x9c4>
    187a:	00005097          	auipc	ra,0x5
    187e:	2e4080e7          	jalr	740(ra) # 6b5e <printf>
    exit(1,"");
    1882:	00007597          	auipc	a1,0x7
    1886:	ac658593          	addi	a1,a1,-1338 # 8348 <malloc+0x172c>
    188a:	4505                	li	a0,1
    188c:	00005097          	auipc	ra,0x5
    1890:	f3a080e7          	jalr	-198(ra) # 67c6 <exit>
        printf("%s: open failed\n", s);
    1894:	85ca                	mv	a1,s2
    1896:	00006517          	auipc	a0,0x6
    189a:	d6250513          	addi	a0,a0,-670 # 75f8 <malloc+0x9dc>
    189e:	00005097          	auipc	ra,0x5
    18a2:	2c0080e7          	jalr	704(ra) # 6b5e <printf>
        exit(1,"");
    18a6:	00007597          	auipc	a1,0x7
    18aa:	aa258593          	addi	a1,a1,-1374 # 8348 <malloc+0x172c>
    18ae:	4505                	li	a0,1
    18b0:	00005097          	auipc	ra,0x5
    18b4:	f16080e7          	jalr	-234(ra) # 67c6 <exit>
        printf("%s: write got %d, expected 10\n", s, n);
    18b8:	862a                	mv	a2,a0
    18ba:	85ca                	mv	a1,s2
    18bc:	00006517          	auipc	a0,0x6
    18c0:	d6450513          	addi	a0,a0,-668 # 7620 <malloc+0xa04>
    18c4:	00005097          	auipc	ra,0x5
    18c8:	29a080e7          	jalr	666(ra) # 6b5e <printf>
        exit(1,"");
    18cc:	00007597          	auipc	a1,0x7
    18d0:	a7c58593          	addi	a1,a1,-1412 # 8348 <malloc+0x172c>
    18d4:	4505                	li	a0,1
    18d6:	00005097          	auipc	ra,0x5
    18da:	ef0080e7          	jalr	-272(ra) # 67c6 <exit>
    18de:	09600993          	li	s3,150
    int fd = open("truncfile", O_CREATE|O_WRONLY|O_TRUNC);
    18e2:	00005a17          	auipc	s4,0x5
    18e6:	4cea0a13          	addi	s4,s4,1230 # 6db0 <malloc+0x194>
    int n = write(fd, "xxx", 3);
    18ea:	00006a97          	auipc	s5,0x6
    18ee:	d56a8a93          	addi	s5,s5,-682 # 7640 <malloc+0xa24>
    int fd = open("truncfile", O_CREATE|O_WRONLY|O_TRUNC);
    18f2:	60100593          	li	a1,1537
    18f6:	8552                	mv	a0,s4
    18f8:	00005097          	auipc	ra,0x5
    18fc:	f0e080e7          	jalr	-242(ra) # 6806 <open>
    1900:	84aa                	mv	s1,a0
    if(fd < 0){
    1902:	04054f63          	bltz	a0,1960 <truncate3+0x1b0>
    int n = write(fd, "xxx", 3);
    1906:	460d                	li	a2,3
    1908:	85d6                	mv	a1,s5
    190a:	00005097          	auipc	ra,0x5
    190e:	edc080e7          	jalr	-292(ra) # 67e6 <write>
    if(n != 3){
    1912:	478d                	li	a5,3
    1914:	06f51863          	bne	a0,a5,1984 <truncate3+0x1d4>
    close(fd);
    1918:	8526                	mv	a0,s1
    191a:	00005097          	auipc	ra,0x5
    191e:	ed4080e7          	jalr	-300(ra) # 67ee <close>
  for(int i = 0; i < 150; i++){
    1922:	39fd                	addiw	s3,s3,-1
    1924:	fc0997e3          	bnez	s3,18f2 <truncate3+0x142>
  wait(&xstatus,"");
    1928:	00007597          	auipc	a1,0x7
    192c:	a2058593          	addi	a1,a1,-1504 # 8348 <malloc+0x172c>
    1930:	fbc40513          	addi	a0,s0,-68
    1934:	00005097          	auipc	ra,0x5
    1938:	e9a080e7          	jalr	-358(ra) # 67ce <wait>
  unlink("truncfile");
    193c:	00005517          	auipc	a0,0x5
    1940:	47450513          	addi	a0,a0,1140 # 6db0 <malloc+0x194>
    1944:	00005097          	auipc	ra,0x5
    1948:	ed2080e7          	jalr	-302(ra) # 6816 <unlink>
  exit(xstatus,"");
    194c:	00007597          	auipc	a1,0x7
    1950:	9fc58593          	addi	a1,a1,-1540 # 8348 <malloc+0x172c>
    1954:	fbc42503          	lw	a0,-68(s0)
    1958:	00005097          	auipc	ra,0x5
    195c:	e6e080e7          	jalr	-402(ra) # 67c6 <exit>
      printf("%s: open failed\n", s);
    1960:	85ca                	mv	a1,s2
    1962:	00006517          	auipc	a0,0x6
    1966:	c9650513          	addi	a0,a0,-874 # 75f8 <malloc+0x9dc>
    196a:	00005097          	auipc	ra,0x5
    196e:	1f4080e7          	jalr	500(ra) # 6b5e <printf>
      exit(1,"");
    1972:	00007597          	auipc	a1,0x7
    1976:	9d658593          	addi	a1,a1,-1578 # 8348 <malloc+0x172c>
    197a:	4505                	li	a0,1
    197c:	00005097          	auipc	ra,0x5
    1980:	e4a080e7          	jalr	-438(ra) # 67c6 <exit>
      printf("%s: write got %d, expected 3\n", s, n);
    1984:	862a                	mv	a2,a0
    1986:	85ca                	mv	a1,s2
    1988:	00006517          	auipc	a0,0x6
    198c:	cc050513          	addi	a0,a0,-832 # 7648 <malloc+0xa2c>
    1990:	00005097          	auipc	ra,0x5
    1994:	1ce080e7          	jalr	462(ra) # 6b5e <printf>
      exit(1,"");
    1998:	00007597          	auipc	a1,0x7
    199c:	9b058593          	addi	a1,a1,-1616 # 8348 <malloc+0x172c>
    19a0:	4505                	li	a0,1
    19a2:	00005097          	auipc	ra,0x5
    19a6:	e24080e7          	jalr	-476(ra) # 67c6 <exit>

00000000000019aa <exectest>:
{
    19aa:	715d                	addi	sp,sp,-80
    19ac:	e486                	sd	ra,72(sp)
    19ae:	e0a2                	sd	s0,64(sp)
    19b0:	fc26                	sd	s1,56(sp)
    19b2:	f84a                	sd	s2,48(sp)
    19b4:	0880                	addi	s0,sp,80
    19b6:	892a                	mv	s2,a0
  char *echoargv[] = { "echo", "OK", 0 };
    19b8:	00005797          	auipc	a5,0x5
    19bc:	3a078793          	addi	a5,a5,928 # 6d58 <malloc+0x13c>
    19c0:	fcf43023          	sd	a5,-64(s0)
    19c4:	00006797          	auipc	a5,0x6
    19c8:	ca478793          	addi	a5,a5,-860 # 7668 <malloc+0xa4c>
    19cc:	fcf43423          	sd	a5,-56(s0)
    19d0:	fc043823          	sd	zero,-48(s0)
  unlink("echo-ok");
    19d4:	00006517          	auipc	a0,0x6
    19d8:	c9c50513          	addi	a0,a0,-868 # 7670 <malloc+0xa54>
    19dc:	00005097          	auipc	ra,0x5
    19e0:	e3a080e7          	jalr	-454(ra) # 6816 <unlink>
  pid = fork();
    19e4:	00005097          	auipc	ra,0x5
    19e8:	dda080e7          	jalr	-550(ra) # 67be <fork>
  if(pid < 0) {
    19ec:	04054a63          	bltz	a0,1a40 <exectest+0x96>
    19f0:	84aa                	mv	s1,a0
  if(pid == 0) {
    19f2:	e55d                	bnez	a0,1aa0 <exectest+0xf6>
    close(1);
    19f4:	4505                	li	a0,1
    19f6:	00005097          	auipc	ra,0x5
    19fa:	df8080e7          	jalr	-520(ra) # 67ee <close>
    fd = open("echo-ok", O_CREATE|O_WRONLY);
    19fe:	20100593          	li	a1,513
    1a02:	00006517          	auipc	a0,0x6
    1a06:	c6e50513          	addi	a0,a0,-914 # 7670 <malloc+0xa54>
    1a0a:	00005097          	auipc	ra,0x5
    1a0e:	dfc080e7          	jalr	-516(ra) # 6806 <open>
    if(fd < 0) {
    1a12:	04054963          	bltz	a0,1a64 <exectest+0xba>
    if(fd != 1) {
    1a16:	4785                	li	a5,1
    1a18:	06f50863          	beq	a0,a5,1a88 <exectest+0xde>
      printf("%s: wrong fd\n", s);
    1a1c:	85ca                	mv	a1,s2
    1a1e:	00006517          	auipc	a0,0x6
    1a22:	c7250513          	addi	a0,a0,-910 # 7690 <malloc+0xa74>
    1a26:	00005097          	auipc	ra,0x5
    1a2a:	138080e7          	jalr	312(ra) # 6b5e <printf>
      exit(1,"");
    1a2e:	00007597          	auipc	a1,0x7
    1a32:	91a58593          	addi	a1,a1,-1766 # 8348 <malloc+0x172c>
    1a36:	4505                	li	a0,1
    1a38:	00005097          	auipc	ra,0x5
    1a3c:	d8e080e7          	jalr	-626(ra) # 67c6 <exit>
     printf("%s: fork failed\n", s);
    1a40:	85ca                	mv	a1,s2
    1a42:	00006517          	auipc	a0,0x6
    1a46:	b9e50513          	addi	a0,a0,-1122 # 75e0 <malloc+0x9c4>
    1a4a:	00005097          	auipc	ra,0x5
    1a4e:	114080e7          	jalr	276(ra) # 6b5e <printf>
     exit(1,"");
    1a52:	00007597          	auipc	a1,0x7
    1a56:	8f658593          	addi	a1,a1,-1802 # 8348 <malloc+0x172c>
    1a5a:	4505                	li	a0,1
    1a5c:	00005097          	auipc	ra,0x5
    1a60:	d6a080e7          	jalr	-662(ra) # 67c6 <exit>
      printf("%s: create failed\n", s);
    1a64:	85ca                	mv	a1,s2
    1a66:	00006517          	auipc	a0,0x6
    1a6a:	c1250513          	addi	a0,a0,-1006 # 7678 <malloc+0xa5c>
    1a6e:	00005097          	auipc	ra,0x5
    1a72:	0f0080e7          	jalr	240(ra) # 6b5e <printf>
      exit(1,"");
    1a76:	00007597          	auipc	a1,0x7
    1a7a:	8d258593          	addi	a1,a1,-1838 # 8348 <malloc+0x172c>
    1a7e:	4505                	li	a0,1
    1a80:	00005097          	auipc	ra,0x5
    1a84:	d46080e7          	jalr	-698(ra) # 67c6 <exit>
    if(exec("echo", echoargv) < 0){
    1a88:	fc040593          	addi	a1,s0,-64
    1a8c:	00005517          	auipc	a0,0x5
    1a90:	2cc50513          	addi	a0,a0,716 # 6d58 <malloc+0x13c>
    1a94:	00005097          	auipc	ra,0x5
    1a98:	d6a080e7          	jalr	-662(ra) # 67fe <exec>
    1a9c:	02054963          	bltz	a0,1ace <exectest+0x124>
  if (wait(&xstatus,"") != pid) {
    1aa0:	00007597          	auipc	a1,0x7
    1aa4:	8a858593          	addi	a1,a1,-1880 # 8348 <malloc+0x172c>
    1aa8:	fdc40513          	addi	a0,s0,-36
    1aac:	00005097          	auipc	ra,0x5
    1ab0:	d22080e7          	jalr	-734(ra) # 67ce <wait>
    1ab4:	02951f63          	bne	a0,s1,1af2 <exectest+0x148>
  if(xstatus != 0)
    1ab8:	fdc42503          	lw	a0,-36(s0)
    1abc:	c529                	beqz	a0,1b06 <exectest+0x15c>
    exit(xstatus,"");
    1abe:	00007597          	auipc	a1,0x7
    1ac2:	88a58593          	addi	a1,a1,-1910 # 8348 <malloc+0x172c>
    1ac6:	00005097          	auipc	ra,0x5
    1aca:	d00080e7          	jalr	-768(ra) # 67c6 <exit>
      printf("%s: exec echo failed\n", s);
    1ace:	85ca                	mv	a1,s2
    1ad0:	00006517          	auipc	a0,0x6
    1ad4:	bd050513          	addi	a0,a0,-1072 # 76a0 <malloc+0xa84>
    1ad8:	00005097          	auipc	ra,0x5
    1adc:	086080e7          	jalr	134(ra) # 6b5e <printf>
      exit(1,"");
    1ae0:	00007597          	auipc	a1,0x7
    1ae4:	86858593          	addi	a1,a1,-1944 # 8348 <malloc+0x172c>
    1ae8:	4505                	li	a0,1
    1aea:	00005097          	auipc	ra,0x5
    1aee:	cdc080e7          	jalr	-804(ra) # 67c6 <exit>
    printf("%s: wait failed!\n", s);
    1af2:	85ca                	mv	a1,s2
    1af4:	00006517          	auipc	a0,0x6
    1af8:	bc450513          	addi	a0,a0,-1084 # 76b8 <malloc+0xa9c>
    1afc:	00005097          	auipc	ra,0x5
    1b00:	062080e7          	jalr	98(ra) # 6b5e <printf>
    1b04:	bf55                	j	1ab8 <exectest+0x10e>
  fd = open("echo-ok", O_RDONLY);
    1b06:	4581                	li	a1,0
    1b08:	00006517          	auipc	a0,0x6
    1b0c:	b6850513          	addi	a0,a0,-1176 # 7670 <malloc+0xa54>
    1b10:	00005097          	auipc	ra,0x5
    1b14:	cf6080e7          	jalr	-778(ra) # 6806 <open>
  if(fd < 0) {
    1b18:	02054e63          	bltz	a0,1b54 <exectest+0x1aa>
  if (read(fd, buf, 2) != 2) {
    1b1c:	4609                	li	a2,2
    1b1e:	fb840593          	addi	a1,s0,-72
    1b22:	00005097          	auipc	ra,0x5
    1b26:	cbc080e7          	jalr	-836(ra) # 67de <read>
    1b2a:	4789                	li	a5,2
    1b2c:	04f50663          	beq	a0,a5,1b78 <exectest+0x1ce>
    printf("%s: read failed\n", s);
    1b30:	85ca                	mv	a1,s2
    1b32:	00005517          	auipc	a0,0x5
    1b36:	5f650513          	addi	a0,a0,1526 # 7128 <malloc+0x50c>
    1b3a:	00005097          	auipc	ra,0x5
    1b3e:	024080e7          	jalr	36(ra) # 6b5e <printf>
    exit(1,"");
    1b42:	00007597          	auipc	a1,0x7
    1b46:	80658593          	addi	a1,a1,-2042 # 8348 <malloc+0x172c>
    1b4a:	4505                	li	a0,1
    1b4c:	00005097          	auipc	ra,0x5
    1b50:	c7a080e7          	jalr	-902(ra) # 67c6 <exit>
    printf("%s: open failed\n", s);
    1b54:	85ca                	mv	a1,s2
    1b56:	00006517          	auipc	a0,0x6
    1b5a:	aa250513          	addi	a0,a0,-1374 # 75f8 <malloc+0x9dc>
    1b5e:	00005097          	auipc	ra,0x5
    1b62:	000080e7          	jalr	ra # 6b5e <printf>
    exit(1,"");
    1b66:	00006597          	auipc	a1,0x6
    1b6a:	7e258593          	addi	a1,a1,2018 # 8348 <malloc+0x172c>
    1b6e:	4505                	li	a0,1
    1b70:	00005097          	auipc	ra,0x5
    1b74:	c56080e7          	jalr	-938(ra) # 67c6 <exit>
  unlink("echo-ok");
    1b78:	00006517          	auipc	a0,0x6
    1b7c:	af850513          	addi	a0,a0,-1288 # 7670 <malloc+0xa54>
    1b80:	00005097          	auipc	ra,0x5
    1b84:	c96080e7          	jalr	-874(ra) # 6816 <unlink>
  if(buf[0] == 'O' && buf[1] == 'K')
    1b88:	fb844703          	lbu	a4,-72(s0)
    1b8c:	04f00793          	li	a5,79
    1b90:	00f71863          	bne	a4,a5,1ba0 <exectest+0x1f6>
    1b94:	fb944703          	lbu	a4,-71(s0)
    1b98:	04b00793          	li	a5,75
    1b9c:	02f70463          	beq	a4,a5,1bc4 <exectest+0x21a>
    printf("%s: wrong output\n", s);
    1ba0:	85ca                	mv	a1,s2
    1ba2:	00006517          	auipc	a0,0x6
    1ba6:	b2e50513          	addi	a0,a0,-1234 # 76d0 <malloc+0xab4>
    1baa:	00005097          	auipc	ra,0x5
    1bae:	fb4080e7          	jalr	-76(ra) # 6b5e <printf>
    exit(1,"");
    1bb2:	00006597          	auipc	a1,0x6
    1bb6:	79658593          	addi	a1,a1,1942 # 8348 <malloc+0x172c>
    1bba:	4505                	li	a0,1
    1bbc:	00005097          	auipc	ra,0x5
    1bc0:	c0a080e7          	jalr	-1014(ra) # 67c6 <exit>
    exit(0,"");
    1bc4:	00006597          	auipc	a1,0x6
    1bc8:	78458593          	addi	a1,a1,1924 # 8348 <malloc+0x172c>
    1bcc:	4501                	li	a0,0
    1bce:	00005097          	auipc	ra,0x5
    1bd2:	bf8080e7          	jalr	-1032(ra) # 67c6 <exit>

0000000000001bd6 <pipe1>:
{
    1bd6:	711d                	addi	sp,sp,-96
    1bd8:	ec86                	sd	ra,88(sp)
    1bda:	e8a2                	sd	s0,80(sp)
    1bdc:	e4a6                	sd	s1,72(sp)
    1bde:	e0ca                	sd	s2,64(sp)
    1be0:	fc4e                	sd	s3,56(sp)
    1be2:	f852                	sd	s4,48(sp)
    1be4:	f456                	sd	s5,40(sp)
    1be6:	f05a                	sd	s6,32(sp)
    1be8:	ec5e                	sd	s7,24(sp)
    1bea:	1080                	addi	s0,sp,96
    1bec:	892a                	mv	s2,a0
  if(pipe(fds) != 0){
    1bee:	fa840513          	addi	a0,s0,-88
    1bf2:	00005097          	auipc	ra,0x5
    1bf6:	be4080e7          	jalr	-1052(ra) # 67d6 <pipe>
    1bfa:	ed25                	bnez	a0,1c72 <pipe1+0x9c>
    1bfc:	84aa                	mv	s1,a0
  pid = fork();
    1bfe:	00005097          	auipc	ra,0x5
    1c02:	bc0080e7          	jalr	-1088(ra) # 67be <fork>
    1c06:	8a2a                	mv	s4,a0
  if(pid == 0){
    1c08:	c559                	beqz	a0,1c96 <pipe1+0xc0>
  } else if(pid > 0){
    1c0a:	1aa05663          	blez	a0,1db6 <pipe1+0x1e0>
    close(fds[1]);
    1c0e:	fac42503          	lw	a0,-84(s0)
    1c12:	00005097          	auipc	ra,0x5
    1c16:	bdc080e7          	jalr	-1060(ra) # 67ee <close>
    total = 0;
    1c1a:	8a26                	mv	s4,s1
    cc = 1;
    1c1c:	4985                	li	s3,1
    while((n = read(fds[0], buf, cc)) > 0){
    1c1e:	0000ca97          	auipc	s5,0xc
    1c22:	05aa8a93          	addi	s5,s5,90 # dc78 <buf>
      if(cc > sizeof(buf))
    1c26:	6b0d                	lui	s6,0x3
    while((n = read(fds[0], buf, cc)) > 0){
    1c28:	864e                	mv	a2,s3
    1c2a:	85d6                	mv	a1,s5
    1c2c:	fa842503          	lw	a0,-88(s0)
    1c30:	00005097          	auipc	ra,0x5
    1c34:	bae080e7          	jalr	-1106(ra) # 67de <read>
    1c38:	10a05e63          	blez	a0,1d54 <pipe1+0x17e>
      for(i = 0; i < n; i++){
    1c3c:	0000c717          	auipc	a4,0xc
    1c40:	03c70713          	addi	a4,a4,60 # dc78 <buf>
    1c44:	00a4863b          	addw	a2,s1,a0
        if((buf[i] & 0xff) != (seq++ & 0xff)){
    1c48:	00074683          	lbu	a3,0(a4)
    1c4c:	0ff4f793          	andi	a5,s1,255
    1c50:	2485                	addiw	s1,s1,1
    1c52:	0cf69d63          	bne	a3,a5,1d2c <pipe1+0x156>
      for(i = 0; i < n; i++){
    1c56:	0705                	addi	a4,a4,1
    1c58:	fec498e3          	bne	s1,a2,1c48 <pipe1+0x72>
      total += n;
    1c5c:	00aa0a3b          	addw	s4,s4,a0
      cc = cc * 2;
    1c60:	0019979b          	slliw	a5,s3,0x1
    1c64:	0007899b          	sext.w	s3,a5
      if(cc > sizeof(buf))
    1c68:	013b7363          	bgeu	s6,s3,1c6e <pipe1+0x98>
        cc = sizeof(buf);
    1c6c:	89da                	mv	s3,s6
        if((buf[i] & 0xff) != (seq++ & 0xff)){
    1c6e:	84b2                	mv	s1,a2
    1c70:	bf65                	j	1c28 <pipe1+0x52>
    printf("%s: pipe() failed\n", s);
    1c72:	85ca                	mv	a1,s2
    1c74:	00006517          	auipc	a0,0x6
    1c78:	a7450513          	addi	a0,a0,-1420 # 76e8 <malloc+0xacc>
    1c7c:	00005097          	auipc	ra,0x5
    1c80:	ee2080e7          	jalr	-286(ra) # 6b5e <printf>
    exit(1,"");
    1c84:	00006597          	auipc	a1,0x6
    1c88:	6c458593          	addi	a1,a1,1732 # 8348 <malloc+0x172c>
    1c8c:	4505                	li	a0,1
    1c8e:	00005097          	auipc	ra,0x5
    1c92:	b38080e7          	jalr	-1224(ra) # 67c6 <exit>
    close(fds[0]);
    1c96:	fa842503          	lw	a0,-88(s0)
    1c9a:	00005097          	auipc	ra,0x5
    1c9e:	b54080e7          	jalr	-1196(ra) # 67ee <close>
    for(n = 0; n < N; n++){
    1ca2:	0000cb17          	auipc	s6,0xc
    1ca6:	fd6b0b13          	addi	s6,s6,-42 # dc78 <buf>
    1caa:	416004bb          	negw	s1,s6
    1cae:	0ff4f493          	andi	s1,s1,255
    1cb2:	409b0993          	addi	s3,s6,1033
      if(write(fds[1], buf, SZ) != SZ){
    1cb6:	8bda                	mv	s7,s6
    for(n = 0; n < N; n++){
    1cb8:	6a85                	lui	s5,0x1
    1cba:	42da8a93          	addi	s5,s5,1069 # 142d <bigdir+0xc5>
{
    1cbe:	87da                	mv	a5,s6
        buf[i] = seq++;
    1cc0:	0097873b          	addw	a4,a5,s1
    1cc4:	00e78023          	sb	a4,0(a5)
      for(i = 0; i < SZ; i++)
    1cc8:	0785                	addi	a5,a5,1
    1cca:	fef99be3          	bne	s3,a5,1cc0 <pipe1+0xea>
        buf[i] = seq++;
    1cce:	409a0a1b          	addiw	s4,s4,1033
      if(write(fds[1], buf, SZ) != SZ){
    1cd2:	40900613          	li	a2,1033
    1cd6:	85de                	mv	a1,s7
    1cd8:	fac42503          	lw	a0,-84(s0)
    1cdc:	00005097          	auipc	ra,0x5
    1ce0:	b0a080e7          	jalr	-1270(ra) # 67e6 <write>
    1ce4:	40900793          	li	a5,1033
    1ce8:	02f51063          	bne	a0,a5,1d08 <pipe1+0x132>
    for(n = 0; n < N; n++){
    1cec:	24a5                	addiw	s1,s1,9
    1cee:	0ff4f493          	andi	s1,s1,255
    1cf2:	fd5a16e3          	bne	s4,s5,1cbe <pipe1+0xe8>
    exit(0,"");
    1cf6:	00006597          	auipc	a1,0x6
    1cfa:	65258593          	addi	a1,a1,1618 # 8348 <malloc+0x172c>
    1cfe:	4501                	li	a0,0
    1d00:	00005097          	auipc	ra,0x5
    1d04:	ac6080e7          	jalr	-1338(ra) # 67c6 <exit>
        printf("%s: pipe1 oops 1\n", s);
    1d08:	85ca                	mv	a1,s2
    1d0a:	00006517          	auipc	a0,0x6
    1d0e:	9f650513          	addi	a0,a0,-1546 # 7700 <malloc+0xae4>
    1d12:	00005097          	auipc	ra,0x5
    1d16:	e4c080e7          	jalr	-436(ra) # 6b5e <printf>
        exit(1,"");
    1d1a:	00006597          	auipc	a1,0x6
    1d1e:	62e58593          	addi	a1,a1,1582 # 8348 <malloc+0x172c>
    1d22:	4505                	li	a0,1
    1d24:	00005097          	auipc	ra,0x5
    1d28:	aa2080e7          	jalr	-1374(ra) # 67c6 <exit>
          printf("%s: pipe1 oops 2\n", s);
    1d2c:	85ca                	mv	a1,s2
    1d2e:	00006517          	auipc	a0,0x6
    1d32:	9ea50513          	addi	a0,a0,-1558 # 7718 <malloc+0xafc>
    1d36:	00005097          	auipc	ra,0x5
    1d3a:	e28080e7          	jalr	-472(ra) # 6b5e <printf>
}
    1d3e:	60e6                	ld	ra,88(sp)
    1d40:	6446                	ld	s0,80(sp)
    1d42:	64a6                	ld	s1,72(sp)
    1d44:	6906                	ld	s2,64(sp)
    1d46:	79e2                	ld	s3,56(sp)
    1d48:	7a42                	ld	s4,48(sp)
    1d4a:	7aa2                	ld	s5,40(sp)
    1d4c:	7b02                	ld	s6,32(sp)
    1d4e:	6be2                	ld	s7,24(sp)
    1d50:	6125                	addi	sp,sp,96
    1d52:	8082                	ret
    if(total != N * SZ){
    1d54:	6785                	lui	a5,0x1
    1d56:	42d78793          	addi	a5,a5,1069 # 142d <bigdir+0xc5>
    1d5a:	02fa0463          	beq	s4,a5,1d82 <pipe1+0x1ac>
      printf("%s: pipe1 oops 3 total %d\n", total);
    1d5e:	85d2                	mv	a1,s4
    1d60:	00006517          	auipc	a0,0x6
    1d64:	9d050513          	addi	a0,a0,-1584 # 7730 <malloc+0xb14>
    1d68:	00005097          	auipc	ra,0x5
    1d6c:	df6080e7          	jalr	-522(ra) # 6b5e <printf>
      exit(1,"");
    1d70:	00006597          	auipc	a1,0x6
    1d74:	5d858593          	addi	a1,a1,1496 # 8348 <malloc+0x172c>
    1d78:	4505                	li	a0,1
    1d7a:	00005097          	auipc	ra,0x5
    1d7e:	a4c080e7          	jalr	-1460(ra) # 67c6 <exit>
    close(fds[0]);
    1d82:	fa842503          	lw	a0,-88(s0)
    1d86:	00005097          	auipc	ra,0x5
    1d8a:	a68080e7          	jalr	-1432(ra) # 67ee <close>
    wait(&xstatus,"");
    1d8e:	00006597          	auipc	a1,0x6
    1d92:	5ba58593          	addi	a1,a1,1466 # 8348 <malloc+0x172c>
    1d96:	fa440513          	addi	a0,s0,-92
    1d9a:	00005097          	auipc	ra,0x5
    1d9e:	a34080e7          	jalr	-1484(ra) # 67ce <wait>
    exit(xstatus,"");
    1da2:	00006597          	auipc	a1,0x6
    1da6:	5a658593          	addi	a1,a1,1446 # 8348 <malloc+0x172c>
    1daa:	fa442503          	lw	a0,-92(s0)
    1dae:	00005097          	auipc	ra,0x5
    1db2:	a18080e7          	jalr	-1512(ra) # 67c6 <exit>
    printf("%s: fork() failed\n", s);
    1db6:	85ca                	mv	a1,s2
    1db8:	00006517          	auipc	a0,0x6
    1dbc:	99850513          	addi	a0,a0,-1640 # 7750 <malloc+0xb34>
    1dc0:	00005097          	auipc	ra,0x5
    1dc4:	d9e080e7          	jalr	-610(ra) # 6b5e <printf>
    exit(1,"");
    1dc8:	00006597          	auipc	a1,0x6
    1dcc:	58058593          	addi	a1,a1,1408 # 8348 <malloc+0x172c>
    1dd0:	4505                	li	a0,1
    1dd2:	00005097          	auipc	ra,0x5
    1dd6:	9f4080e7          	jalr	-1548(ra) # 67c6 <exit>

0000000000001dda <exitwait>:
{
    1dda:	715d                	addi	sp,sp,-80
    1ddc:	e486                	sd	ra,72(sp)
    1dde:	e0a2                	sd	s0,64(sp)
    1de0:	fc26                	sd	s1,56(sp)
    1de2:	f84a                	sd	s2,48(sp)
    1de4:	f44e                	sd	s3,40(sp)
    1de6:	f052                	sd	s4,32(sp)
    1de8:	ec56                	sd	s5,24(sp)
    1dea:	0880                	addi	s0,sp,80
    1dec:	8aaa                	mv	s5,a0
  for(i = 0; i < 100; i++){
    1dee:	4901                	li	s2,0
      if(wait(&xstate,"") != pid){
    1df0:	00006997          	auipc	s3,0x6
    1df4:	55898993          	addi	s3,s3,1368 # 8348 <malloc+0x172c>
  for(i = 0; i < 100; i++){
    1df8:	06400a13          	li	s4,100
    pid = fork();
    1dfc:	00005097          	auipc	ra,0x5
    1e00:	9c2080e7          	jalr	-1598(ra) # 67be <fork>
    1e04:	84aa                	mv	s1,a0
    if(pid < 0){
    1e06:	02054c63          	bltz	a0,1e3e <exitwait+0x64>
    if(pid){
    1e0a:	c145                	beqz	a0,1eaa <exitwait+0xd0>
      if(wait(&xstate,"") != pid){
    1e0c:	85ce                	mv	a1,s3
    1e0e:	fbc40513          	addi	a0,s0,-68
    1e12:	00005097          	auipc	ra,0x5
    1e16:	9bc080e7          	jalr	-1604(ra) # 67ce <wait>
    1e1a:	04951463          	bne	a0,s1,1e62 <exitwait+0x88>
      if(i != xstate) {
    1e1e:	fbc42783          	lw	a5,-68(s0)
    1e22:	07279263          	bne	a5,s2,1e86 <exitwait+0xac>
  for(i = 0; i < 100; i++){
    1e26:	2905                	addiw	s2,s2,1
    1e28:	fd491ae3          	bne	s2,s4,1dfc <exitwait+0x22>
}
    1e2c:	60a6                	ld	ra,72(sp)
    1e2e:	6406                	ld	s0,64(sp)
    1e30:	74e2                	ld	s1,56(sp)
    1e32:	7942                	ld	s2,48(sp)
    1e34:	79a2                	ld	s3,40(sp)
    1e36:	7a02                	ld	s4,32(sp)
    1e38:	6ae2                	ld	s5,24(sp)
    1e3a:	6161                	addi	sp,sp,80
    1e3c:	8082                	ret
      printf("%s: fork failed\n", s);
    1e3e:	85d6                	mv	a1,s5
    1e40:	00005517          	auipc	a0,0x5
    1e44:	7a050513          	addi	a0,a0,1952 # 75e0 <malloc+0x9c4>
    1e48:	00005097          	auipc	ra,0x5
    1e4c:	d16080e7          	jalr	-746(ra) # 6b5e <printf>
      exit(1,"");
    1e50:	00006597          	auipc	a1,0x6
    1e54:	4f858593          	addi	a1,a1,1272 # 8348 <malloc+0x172c>
    1e58:	4505                	li	a0,1
    1e5a:	00005097          	auipc	ra,0x5
    1e5e:	96c080e7          	jalr	-1684(ra) # 67c6 <exit>
        printf("%s: wait wrong pid\n", s);
    1e62:	85d6                	mv	a1,s5
    1e64:	00006517          	auipc	a0,0x6
    1e68:	90450513          	addi	a0,a0,-1788 # 7768 <malloc+0xb4c>
    1e6c:	00005097          	auipc	ra,0x5
    1e70:	cf2080e7          	jalr	-782(ra) # 6b5e <printf>
        exit(1,"");
    1e74:	00006597          	auipc	a1,0x6
    1e78:	4d458593          	addi	a1,a1,1236 # 8348 <malloc+0x172c>
    1e7c:	4505                	li	a0,1
    1e7e:	00005097          	auipc	ra,0x5
    1e82:	948080e7          	jalr	-1720(ra) # 67c6 <exit>
        printf("%s: wait wrong exit status\n", s);
    1e86:	85d6                	mv	a1,s5
    1e88:	00006517          	auipc	a0,0x6
    1e8c:	8f850513          	addi	a0,a0,-1800 # 7780 <malloc+0xb64>
    1e90:	00005097          	auipc	ra,0x5
    1e94:	cce080e7          	jalr	-818(ra) # 6b5e <printf>
        exit(1,"");
    1e98:	00006597          	auipc	a1,0x6
    1e9c:	4b058593          	addi	a1,a1,1200 # 8348 <malloc+0x172c>
    1ea0:	4505                	li	a0,1
    1ea2:	00005097          	auipc	ra,0x5
    1ea6:	924080e7          	jalr	-1756(ra) # 67c6 <exit>
      exit(i,"");
    1eaa:	00006597          	auipc	a1,0x6
    1eae:	49e58593          	addi	a1,a1,1182 # 8348 <malloc+0x172c>
    1eb2:	854a                	mv	a0,s2
    1eb4:	00005097          	auipc	ra,0x5
    1eb8:	912080e7          	jalr	-1774(ra) # 67c6 <exit>

0000000000001ebc <twochildren>:
{
    1ebc:	7179                	addi	sp,sp,-48
    1ebe:	f406                	sd	ra,40(sp)
    1ec0:	f022                	sd	s0,32(sp)
    1ec2:	ec26                	sd	s1,24(sp)
    1ec4:	e84a                	sd	s2,16(sp)
    1ec6:	e44e                	sd	s3,8(sp)
    1ec8:	1800                	addi	s0,sp,48
    1eca:	89aa                	mv	s3,a0
    1ecc:	3e800493          	li	s1,1000
        wait(0,"");
    1ed0:	00006917          	auipc	s2,0x6
    1ed4:	47890913          	addi	s2,s2,1144 # 8348 <malloc+0x172c>
    int pid1 = fork();
    1ed8:	00005097          	auipc	ra,0x5
    1edc:	8e6080e7          	jalr	-1818(ra) # 67be <fork>
    if(pid1 < 0){
    1ee0:	02054f63          	bltz	a0,1f1e <twochildren+0x62>
    if(pid1 == 0){
    1ee4:	cd39                	beqz	a0,1f42 <twochildren+0x86>
      int pid2 = fork();
    1ee6:	00005097          	auipc	ra,0x5
    1eea:	8d8080e7          	jalr	-1832(ra) # 67be <fork>
      if(pid2 < 0){
    1eee:	06054263          	bltz	a0,1f52 <twochildren+0x96>
      if(pid2 == 0){
    1ef2:	c151                	beqz	a0,1f76 <twochildren+0xba>
        wait(0,"");
    1ef4:	85ca                	mv	a1,s2
    1ef6:	4501                	li	a0,0
    1ef8:	00005097          	auipc	ra,0x5
    1efc:	8d6080e7          	jalr	-1834(ra) # 67ce <wait>
        wait(0,"");
    1f00:	85ca                	mv	a1,s2
    1f02:	4501                	li	a0,0
    1f04:	00005097          	auipc	ra,0x5
    1f08:	8ca080e7          	jalr	-1846(ra) # 67ce <wait>
  for(int i = 0; i < 1000; i++){
    1f0c:	34fd                	addiw	s1,s1,-1
    1f0e:	f4e9                	bnez	s1,1ed8 <twochildren+0x1c>
}
    1f10:	70a2                	ld	ra,40(sp)
    1f12:	7402                	ld	s0,32(sp)
    1f14:	64e2                	ld	s1,24(sp)
    1f16:	6942                	ld	s2,16(sp)
    1f18:	69a2                	ld	s3,8(sp)
    1f1a:	6145                	addi	sp,sp,48
    1f1c:	8082                	ret
      printf("%s: fork failed\n", s);
    1f1e:	85ce                	mv	a1,s3
    1f20:	00005517          	auipc	a0,0x5
    1f24:	6c050513          	addi	a0,a0,1728 # 75e0 <malloc+0x9c4>
    1f28:	00005097          	auipc	ra,0x5
    1f2c:	c36080e7          	jalr	-970(ra) # 6b5e <printf>
      exit(1,"");
    1f30:	00006597          	auipc	a1,0x6
    1f34:	41858593          	addi	a1,a1,1048 # 8348 <malloc+0x172c>
    1f38:	4505                	li	a0,1
    1f3a:	00005097          	auipc	ra,0x5
    1f3e:	88c080e7          	jalr	-1908(ra) # 67c6 <exit>
      exit(0,"");
    1f42:	00006597          	auipc	a1,0x6
    1f46:	40658593          	addi	a1,a1,1030 # 8348 <malloc+0x172c>
    1f4a:	00005097          	auipc	ra,0x5
    1f4e:	87c080e7          	jalr	-1924(ra) # 67c6 <exit>
        printf("%s: fork failed\n", s);
    1f52:	85ce                	mv	a1,s3
    1f54:	00005517          	auipc	a0,0x5
    1f58:	68c50513          	addi	a0,a0,1676 # 75e0 <malloc+0x9c4>
    1f5c:	00005097          	auipc	ra,0x5
    1f60:	c02080e7          	jalr	-1022(ra) # 6b5e <printf>
        exit(1,"");
    1f64:	00006597          	auipc	a1,0x6
    1f68:	3e458593          	addi	a1,a1,996 # 8348 <malloc+0x172c>
    1f6c:	4505                	li	a0,1
    1f6e:	00005097          	auipc	ra,0x5
    1f72:	858080e7          	jalr	-1960(ra) # 67c6 <exit>
        exit(0,"");
    1f76:	00006597          	auipc	a1,0x6
    1f7a:	3d258593          	addi	a1,a1,978 # 8348 <malloc+0x172c>
    1f7e:	00005097          	auipc	ra,0x5
    1f82:	848080e7          	jalr	-1976(ra) # 67c6 <exit>

0000000000001f86 <forkfork>:
{
    1f86:	7179                	addi	sp,sp,-48
    1f88:	f406                	sd	ra,40(sp)
    1f8a:	f022                	sd	s0,32(sp)
    1f8c:	ec26                	sd	s1,24(sp)
    1f8e:	e84a                	sd	s2,16(sp)
    1f90:	1800                	addi	s0,sp,48
    1f92:	84aa                	mv	s1,a0
    int pid = fork();
    1f94:	00005097          	auipc	ra,0x5
    1f98:	82a080e7          	jalr	-2006(ra) # 67be <fork>
    if(pid < 0){
    1f9c:	04054a63          	bltz	a0,1ff0 <forkfork+0x6a>
    if(pid == 0){
    1fa0:	c935                	beqz	a0,2014 <forkfork+0x8e>
    int pid = fork();
    1fa2:	00005097          	auipc	ra,0x5
    1fa6:	81c080e7          	jalr	-2020(ra) # 67be <fork>
    if(pid < 0){
    1faa:	04054363          	bltz	a0,1ff0 <forkfork+0x6a>
    if(pid == 0){
    1fae:	c13d                	beqz	a0,2014 <forkfork+0x8e>
    wait(&xstatus,"");
    1fb0:	00006597          	auipc	a1,0x6
    1fb4:	39858593          	addi	a1,a1,920 # 8348 <malloc+0x172c>
    1fb8:	fdc40513          	addi	a0,s0,-36
    1fbc:	00005097          	auipc	ra,0x5
    1fc0:	812080e7          	jalr	-2030(ra) # 67ce <wait>
    if(xstatus != 0) {
    1fc4:	fdc42783          	lw	a5,-36(s0)
    1fc8:	e7cd                	bnez	a5,2072 <forkfork+0xec>
    wait(&xstatus,"");
    1fca:	00006597          	auipc	a1,0x6
    1fce:	37e58593          	addi	a1,a1,894 # 8348 <malloc+0x172c>
    1fd2:	fdc40513          	addi	a0,s0,-36
    1fd6:	00004097          	auipc	ra,0x4
    1fda:	7f8080e7          	jalr	2040(ra) # 67ce <wait>
    if(xstatus != 0) {
    1fde:	fdc42783          	lw	a5,-36(s0)
    1fe2:	ebc1                	bnez	a5,2072 <forkfork+0xec>
}
    1fe4:	70a2                	ld	ra,40(sp)
    1fe6:	7402                	ld	s0,32(sp)
    1fe8:	64e2                	ld	s1,24(sp)
    1fea:	6942                	ld	s2,16(sp)
    1fec:	6145                	addi	sp,sp,48
    1fee:	8082                	ret
      printf("%s: fork failed", s);
    1ff0:	85a6                	mv	a1,s1
    1ff2:	00005517          	auipc	a0,0x5
    1ff6:	7ae50513          	addi	a0,a0,1966 # 77a0 <malloc+0xb84>
    1ffa:	00005097          	auipc	ra,0x5
    1ffe:	b64080e7          	jalr	-1180(ra) # 6b5e <printf>
      exit(1,"");
    2002:	00006597          	auipc	a1,0x6
    2006:	34658593          	addi	a1,a1,838 # 8348 <malloc+0x172c>
    200a:	4505                	li	a0,1
    200c:	00004097          	auipc	ra,0x4
    2010:	7ba080e7          	jalr	1978(ra) # 67c6 <exit>
{
    2014:	0c800493          	li	s1,200
        wait(0,"");
    2018:	00006917          	auipc	s2,0x6
    201c:	33090913          	addi	s2,s2,816 # 8348 <malloc+0x172c>
        int pid1 = fork();
    2020:	00004097          	auipc	ra,0x4
    2024:	79e080e7          	jalr	1950(ra) # 67be <fork>
        if(pid1 < 0){
    2028:	02054463          	bltz	a0,2050 <forkfork+0xca>
        if(pid1 == 0){
    202c:	c91d                	beqz	a0,2062 <forkfork+0xdc>
        wait(0,"");
    202e:	85ca                	mv	a1,s2
    2030:	4501                	li	a0,0
    2032:	00004097          	auipc	ra,0x4
    2036:	79c080e7          	jalr	1948(ra) # 67ce <wait>
      for(int j = 0; j < 200; j++){
    203a:	34fd                	addiw	s1,s1,-1
    203c:	f0f5                	bnez	s1,2020 <forkfork+0x9a>
      exit(0,"");
    203e:	00006597          	auipc	a1,0x6
    2042:	30a58593          	addi	a1,a1,778 # 8348 <malloc+0x172c>
    2046:	4501                	li	a0,0
    2048:	00004097          	auipc	ra,0x4
    204c:	77e080e7          	jalr	1918(ra) # 67c6 <exit>
          exit(1,"");
    2050:	00006597          	auipc	a1,0x6
    2054:	2f858593          	addi	a1,a1,760 # 8348 <malloc+0x172c>
    2058:	4505                	li	a0,1
    205a:	00004097          	auipc	ra,0x4
    205e:	76c080e7          	jalr	1900(ra) # 67c6 <exit>
          exit(0,"");
    2062:	00006597          	auipc	a1,0x6
    2066:	2e658593          	addi	a1,a1,742 # 8348 <malloc+0x172c>
    206a:	00004097          	auipc	ra,0x4
    206e:	75c080e7          	jalr	1884(ra) # 67c6 <exit>
      printf("%s: fork in child failed", s);
    2072:	85a6                	mv	a1,s1
    2074:	00005517          	auipc	a0,0x5
    2078:	73c50513          	addi	a0,a0,1852 # 77b0 <malloc+0xb94>
    207c:	00005097          	auipc	ra,0x5
    2080:	ae2080e7          	jalr	-1310(ra) # 6b5e <printf>
      exit(1,"");
    2084:	00006597          	auipc	a1,0x6
    2088:	2c458593          	addi	a1,a1,708 # 8348 <malloc+0x172c>
    208c:	4505                	li	a0,1
    208e:	00004097          	auipc	ra,0x4
    2092:	738080e7          	jalr	1848(ra) # 67c6 <exit>

0000000000002096 <reparent2>:
{
    2096:	1101                	addi	sp,sp,-32
    2098:	ec06                	sd	ra,24(sp)
    209a:	e822                	sd	s0,16(sp)
    209c:	e426                	sd	s1,8(sp)
    209e:	e04a                	sd	s2,0(sp)
    20a0:	1000                	addi	s0,sp,32
    20a2:	32000493          	li	s1,800
    wait(0,"");
    20a6:	00006917          	auipc	s2,0x6
    20aa:	2a290913          	addi	s2,s2,674 # 8348 <malloc+0x172c>
    int pid1 = fork();
    20ae:	00004097          	auipc	ra,0x4
    20b2:	710080e7          	jalr	1808(ra) # 67be <fork>
    if(pid1 < 0){
    20b6:	02054463          	bltz	a0,20de <reparent2+0x48>
    if(pid1 == 0){
    20ba:	c139                	beqz	a0,2100 <reparent2+0x6a>
    wait(0,"");
    20bc:	85ca                	mv	a1,s2
    20be:	4501                	li	a0,0
    20c0:	00004097          	auipc	ra,0x4
    20c4:	70e080e7          	jalr	1806(ra) # 67ce <wait>
  for(int i = 0; i < 800; i++){
    20c8:	34fd                	addiw	s1,s1,-1
    20ca:	f0f5                	bnez	s1,20ae <reparent2+0x18>
  exit(0,"");
    20cc:	00006597          	auipc	a1,0x6
    20d0:	27c58593          	addi	a1,a1,636 # 8348 <malloc+0x172c>
    20d4:	4501                	li	a0,0
    20d6:	00004097          	auipc	ra,0x4
    20da:	6f0080e7          	jalr	1776(ra) # 67c6 <exit>
      printf("fork failed\n");
    20de:	00006517          	auipc	a0,0x6
    20e2:	90a50513          	addi	a0,a0,-1782 # 79e8 <malloc+0xdcc>
    20e6:	00005097          	auipc	ra,0x5
    20ea:	a78080e7          	jalr	-1416(ra) # 6b5e <printf>
      exit(1,"");
    20ee:	00006597          	auipc	a1,0x6
    20f2:	25a58593          	addi	a1,a1,602 # 8348 <malloc+0x172c>
    20f6:	4505                	li	a0,1
    20f8:	00004097          	auipc	ra,0x4
    20fc:	6ce080e7          	jalr	1742(ra) # 67c6 <exit>
      fork();
    2100:	00004097          	auipc	ra,0x4
    2104:	6be080e7          	jalr	1726(ra) # 67be <fork>
      fork();
    2108:	00004097          	auipc	ra,0x4
    210c:	6b6080e7          	jalr	1718(ra) # 67be <fork>
      exit(0,"");
    2110:	00006597          	auipc	a1,0x6
    2114:	23858593          	addi	a1,a1,568 # 8348 <malloc+0x172c>
    2118:	4501                	li	a0,0
    211a:	00004097          	auipc	ra,0x4
    211e:	6ac080e7          	jalr	1708(ra) # 67c6 <exit>

0000000000002122 <createdelete>:
{
    2122:	7175                	addi	sp,sp,-144
    2124:	e506                	sd	ra,136(sp)
    2126:	e122                	sd	s0,128(sp)
    2128:	fca6                	sd	s1,120(sp)
    212a:	f8ca                	sd	s2,112(sp)
    212c:	f4ce                	sd	s3,104(sp)
    212e:	f0d2                	sd	s4,96(sp)
    2130:	ecd6                	sd	s5,88(sp)
    2132:	e8da                	sd	s6,80(sp)
    2134:	e4de                	sd	s7,72(sp)
    2136:	e0e2                	sd	s8,64(sp)
    2138:	fc66                	sd	s9,56(sp)
    213a:	0900                	addi	s0,sp,144
    213c:	8caa                	mv	s9,a0
  for(pi = 0; pi < NCHILD; pi++){
    213e:	4901                	li	s2,0
    2140:	4991                	li	s3,4
    pid = fork();
    2142:	00004097          	auipc	ra,0x4
    2146:	67c080e7          	jalr	1660(ra) # 67be <fork>
    214a:	84aa                	mv	s1,a0
    if(pid < 0){
    214c:	04054463          	bltz	a0,2194 <createdelete+0x72>
    if(pid == 0){
    2150:	c525                	beqz	a0,21b8 <createdelete+0x96>
  for(pi = 0; pi < NCHILD; pi++){
    2152:	2905                	addiw	s2,s2,1
    2154:	ff3917e3          	bne	s2,s3,2142 <createdelete+0x20>
    2158:	4491                	li	s1,4
    wait(&xstatus,"");
    215a:	00006997          	auipc	s3,0x6
    215e:	1ee98993          	addi	s3,s3,494 # 8348 <malloc+0x172c>
    2162:	85ce                	mv	a1,s3
    2164:	f7c40513          	addi	a0,s0,-132
    2168:	00004097          	auipc	ra,0x4
    216c:	666080e7          	jalr	1638(ra) # 67ce <wait>
    if(xstatus != 0)
    2170:	f7c42903          	lw	s2,-132(s0)
    2174:	10091263          	bnez	s2,2278 <createdelete+0x156>
  for(pi = 0; pi < NCHILD; pi++){
    2178:	34fd                	addiw	s1,s1,-1
    217a:	f4e5                	bnez	s1,2162 <createdelete+0x40>
  name[0] = name[1] = name[2] = 0;
    217c:	f8040123          	sb	zero,-126(s0)
    2180:	03000993          	li	s3,48
    2184:	5a7d                	li	s4,-1
    2186:	07000c13          	li	s8,112
      } else if((i >= 1 && i < N/2) && fd >= 0){
    218a:	4b21                	li	s6,8
      if((i == 0 || i >= N/2) && fd < 0){
    218c:	4ba5                	li	s7,9
    for(pi = 0; pi < NCHILD; pi++){
    218e:	07400a93          	li	s5,116
    2192:	aa79                	j	2330 <createdelete+0x20e>
      printf("fork failed\n", s);
    2194:	85e6                	mv	a1,s9
    2196:	00006517          	auipc	a0,0x6
    219a:	85250513          	addi	a0,a0,-1966 # 79e8 <malloc+0xdcc>
    219e:	00005097          	auipc	ra,0x5
    21a2:	9c0080e7          	jalr	-1600(ra) # 6b5e <printf>
      exit(1,"");
    21a6:	00006597          	auipc	a1,0x6
    21aa:	1a258593          	addi	a1,a1,418 # 8348 <malloc+0x172c>
    21ae:	4505                	li	a0,1
    21b0:	00004097          	auipc	ra,0x4
    21b4:	616080e7          	jalr	1558(ra) # 67c6 <exit>
      name[0] = 'p' + pi;
    21b8:	0709091b          	addiw	s2,s2,112
    21bc:	f9240023          	sb	s2,-128(s0)
      name[2] = '\0';
    21c0:	f8040123          	sb	zero,-126(s0)
      for(i = 0; i < N; i++){
    21c4:	4951                	li	s2,20
    21c6:	a035                	j	21f2 <createdelete+0xd0>
          printf("%s: create failed\n", s);
    21c8:	85e6                	mv	a1,s9
    21ca:	00005517          	auipc	a0,0x5
    21ce:	4ae50513          	addi	a0,a0,1198 # 7678 <malloc+0xa5c>
    21d2:	00005097          	auipc	ra,0x5
    21d6:	98c080e7          	jalr	-1652(ra) # 6b5e <printf>
          exit(1,"");
    21da:	00006597          	auipc	a1,0x6
    21de:	16e58593          	addi	a1,a1,366 # 8348 <malloc+0x172c>
    21e2:	4505                	li	a0,1
    21e4:	00004097          	auipc	ra,0x4
    21e8:	5e2080e7          	jalr	1506(ra) # 67c6 <exit>
      for(i = 0; i < N; i++){
    21ec:	2485                	addiw	s1,s1,1
    21ee:	07248c63          	beq	s1,s2,2266 <createdelete+0x144>
        name[1] = '0' + i;
    21f2:	0304879b          	addiw	a5,s1,48
    21f6:	f8f400a3          	sb	a5,-127(s0)
        fd = open(name, O_CREATE | O_RDWR);
    21fa:	20200593          	li	a1,514
    21fe:	f8040513          	addi	a0,s0,-128
    2202:	00004097          	auipc	ra,0x4
    2206:	604080e7          	jalr	1540(ra) # 6806 <open>
        if(fd < 0){
    220a:	fa054fe3          	bltz	a0,21c8 <createdelete+0xa6>
        close(fd);
    220e:	00004097          	auipc	ra,0x4
    2212:	5e0080e7          	jalr	1504(ra) # 67ee <close>
        if(i > 0 && (i % 2 ) == 0){
    2216:	fc905be3          	blez	s1,21ec <createdelete+0xca>
    221a:	0014f793          	andi	a5,s1,1
    221e:	f7f9                	bnez	a5,21ec <createdelete+0xca>
          name[1] = '0' + (i / 2);
    2220:	01f4d79b          	srliw	a5,s1,0x1f
    2224:	9fa5                	addw	a5,a5,s1
    2226:	4017d79b          	sraiw	a5,a5,0x1
    222a:	0307879b          	addiw	a5,a5,48
    222e:	f8f400a3          	sb	a5,-127(s0)
          if(unlink(name) < 0){
    2232:	f8040513          	addi	a0,s0,-128
    2236:	00004097          	auipc	ra,0x4
    223a:	5e0080e7          	jalr	1504(ra) # 6816 <unlink>
    223e:	fa0557e3          	bgez	a0,21ec <createdelete+0xca>
            printf("%s: unlink failed\n", s);
    2242:	85e6                	mv	a1,s9
    2244:	00005517          	auipc	a0,0x5
    2248:	58c50513          	addi	a0,a0,1420 # 77d0 <malloc+0xbb4>
    224c:	00005097          	auipc	ra,0x5
    2250:	912080e7          	jalr	-1774(ra) # 6b5e <printf>
            exit(1,"");
    2254:	00006597          	auipc	a1,0x6
    2258:	0f458593          	addi	a1,a1,244 # 8348 <malloc+0x172c>
    225c:	4505                	li	a0,1
    225e:	00004097          	auipc	ra,0x4
    2262:	568080e7          	jalr	1384(ra) # 67c6 <exit>
      exit(0,"");
    2266:	00006597          	auipc	a1,0x6
    226a:	0e258593          	addi	a1,a1,226 # 8348 <malloc+0x172c>
    226e:	4501                	li	a0,0
    2270:	00004097          	auipc	ra,0x4
    2274:	556080e7          	jalr	1366(ra) # 67c6 <exit>
      exit(1,"");
    2278:	00006597          	auipc	a1,0x6
    227c:	0d058593          	addi	a1,a1,208 # 8348 <malloc+0x172c>
    2280:	4505                	li	a0,1
    2282:	00004097          	auipc	ra,0x4
    2286:	544080e7          	jalr	1348(ra) # 67c6 <exit>
        printf("%s: oops createdelete %s didn't exist\n", s, name);
    228a:	f8040613          	addi	a2,s0,-128
    228e:	85e6                	mv	a1,s9
    2290:	00005517          	auipc	a0,0x5
    2294:	55850513          	addi	a0,a0,1368 # 77e8 <malloc+0xbcc>
    2298:	00005097          	auipc	ra,0x5
    229c:	8c6080e7          	jalr	-1850(ra) # 6b5e <printf>
        exit(1,"");
    22a0:	00006597          	auipc	a1,0x6
    22a4:	0a858593          	addi	a1,a1,168 # 8348 <malloc+0x172c>
    22a8:	4505                	li	a0,1
    22aa:	00004097          	auipc	ra,0x4
    22ae:	51c080e7          	jalr	1308(ra) # 67c6 <exit>
      } else if((i >= 1 && i < N/2) && fd >= 0){
    22b2:	054b7163          	bgeu	s6,s4,22f4 <createdelete+0x1d2>
      if(fd >= 0)
    22b6:	02055a63          	bgez	a0,22ea <createdelete+0x1c8>
    for(pi = 0; pi < NCHILD; pi++){
    22ba:	2485                	addiw	s1,s1,1
    22bc:	0ff4f493          	andi	s1,s1,255
    22c0:	07548063          	beq	s1,s5,2320 <createdelete+0x1fe>
      name[0] = 'p' + pi;
    22c4:	f8940023          	sb	s1,-128(s0)
      name[1] = '0' + i;
    22c8:	f93400a3          	sb	s3,-127(s0)
      fd = open(name, 0);
    22cc:	4581                	li	a1,0
    22ce:	f8040513          	addi	a0,s0,-128
    22d2:	00004097          	auipc	ra,0x4
    22d6:	534080e7          	jalr	1332(ra) # 6806 <open>
      if((i == 0 || i >= N/2) && fd < 0){
    22da:	00090463          	beqz	s2,22e2 <createdelete+0x1c0>
    22de:	fd2bdae3          	bge	s7,s2,22b2 <createdelete+0x190>
    22e2:	fa0544e3          	bltz	a0,228a <createdelete+0x168>
      } else if((i >= 1 && i < N/2) && fd >= 0){
    22e6:	014b7963          	bgeu	s6,s4,22f8 <createdelete+0x1d6>
        close(fd);
    22ea:	00004097          	auipc	ra,0x4
    22ee:	504080e7          	jalr	1284(ra) # 67ee <close>
    22f2:	b7e1                	j	22ba <createdelete+0x198>
      } else if((i >= 1 && i < N/2) && fd >= 0){
    22f4:	fc0543e3          	bltz	a0,22ba <createdelete+0x198>
        printf("%s: oops createdelete %s did exist\n", s, name);
    22f8:	f8040613          	addi	a2,s0,-128
    22fc:	85e6                	mv	a1,s9
    22fe:	00005517          	auipc	a0,0x5
    2302:	51250513          	addi	a0,a0,1298 # 7810 <malloc+0xbf4>
    2306:	00005097          	auipc	ra,0x5
    230a:	858080e7          	jalr	-1960(ra) # 6b5e <printf>
        exit(1,"");
    230e:	00006597          	auipc	a1,0x6
    2312:	03a58593          	addi	a1,a1,58 # 8348 <malloc+0x172c>
    2316:	4505                	li	a0,1
    2318:	00004097          	auipc	ra,0x4
    231c:	4ae080e7          	jalr	1198(ra) # 67c6 <exit>
  for(i = 0; i < N; i++){
    2320:	2905                	addiw	s2,s2,1
    2322:	2a05                	addiw	s4,s4,1
    2324:	2985                	addiw	s3,s3,1
    2326:	0ff9f993          	andi	s3,s3,255
    232a:	47d1                	li	a5,20
    232c:	02f90a63          	beq	s2,a5,2360 <createdelete+0x23e>
    for(pi = 0; pi < NCHILD; pi++){
    2330:	84e2                	mv	s1,s8
    2332:	bf49                	j	22c4 <createdelete+0x1a2>
  for(i = 0; i < N; i++){
    2334:	2905                	addiw	s2,s2,1
    2336:	0ff97913          	andi	s2,s2,255
    233a:	2985                	addiw	s3,s3,1
    233c:	0ff9f993          	andi	s3,s3,255
    2340:	03490863          	beq	s2,s4,2370 <createdelete+0x24e>
  name[0] = name[1] = name[2] = 0;
    2344:	84d6                	mv	s1,s5
      name[0] = 'p' + i;
    2346:	f9240023          	sb	s2,-128(s0)
      name[1] = '0' + i;
    234a:	f93400a3          	sb	s3,-127(s0)
      unlink(name);
    234e:	f8040513          	addi	a0,s0,-128
    2352:	00004097          	auipc	ra,0x4
    2356:	4c4080e7          	jalr	1220(ra) # 6816 <unlink>
    for(pi = 0; pi < NCHILD; pi++){
    235a:	34fd                	addiw	s1,s1,-1
    235c:	f4ed                	bnez	s1,2346 <createdelete+0x224>
    235e:	bfd9                	j	2334 <createdelete+0x212>
    2360:	03000993          	li	s3,48
    2364:	07000913          	li	s2,112
  name[0] = name[1] = name[2] = 0;
    2368:	4a91                	li	s5,4
  for(i = 0; i < N; i++){
    236a:	08400a13          	li	s4,132
    236e:	bfd9                	j	2344 <createdelete+0x222>
}
    2370:	60aa                	ld	ra,136(sp)
    2372:	640a                	ld	s0,128(sp)
    2374:	74e6                	ld	s1,120(sp)
    2376:	7946                	ld	s2,112(sp)
    2378:	79a6                	ld	s3,104(sp)
    237a:	7a06                	ld	s4,96(sp)
    237c:	6ae6                	ld	s5,88(sp)
    237e:	6b46                	ld	s6,80(sp)
    2380:	6ba6                	ld	s7,72(sp)
    2382:	6c06                	ld	s8,64(sp)
    2384:	7ce2                	ld	s9,56(sp)
    2386:	6149                	addi	sp,sp,144
    2388:	8082                	ret

000000000000238a <linkunlink>:
{
    238a:	711d                	addi	sp,sp,-96
    238c:	ec86                	sd	ra,88(sp)
    238e:	e8a2                	sd	s0,80(sp)
    2390:	e4a6                	sd	s1,72(sp)
    2392:	e0ca                	sd	s2,64(sp)
    2394:	fc4e                	sd	s3,56(sp)
    2396:	f852                	sd	s4,48(sp)
    2398:	f456                	sd	s5,40(sp)
    239a:	f05a                	sd	s6,32(sp)
    239c:	ec5e                	sd	s7,24(sp)
    239e:	e862                	sd	s8,16(sp)
    23a0:	e466                	sd	s9,8(sp)
    23a2:	1080                	addi	s0,sp,96
    23a4:	84aa                	mv	s1,a0
  unlink("x");
    23a6:	00005517          	auipc	a0,0x5
    23aa:	a2250513          	addi	a0,a0,-1502 # 6dc8 <malloc+0x1ac>
    23ae:	00004097          	auipc	ra,0x4
    23b2:	468080e7          	jalr	1128(ra) # 6816 <unlink>
  pid = fork();
    23b6:	00004097          	auipc	ra,0x4
    23ba:	408080e7          	jalr	1032(ra) # 67be <fork>
  if(pid < 0){
    23be:	02054b63          	bltz	a0,23f4 <linkunlink+0x6a>
    23c2:	8c2a                	mv	s8,a0
  unsigned int x = (pid ? 1 : 97);
    23c4:	4c85                	li	s9,1
    23c6:	e119                	bnez	a0,23cc <linkunlink+0x42>
    23c8:	06100c93          	li	s9,97
    23cc:	06400493          	li	s1,100
    x = x * 1103515245 + 12345;
    23d0:	41c659b7          	lui	s3,0x41c65
    23d4:	e6d9899b          	addiw	s3,s3,-403
    23d8:	690d                	lui	s2,0x3
    23da:	0399091b          	addiw	s2,s2,57
    if((x % 3) == 0){
    23de:	4a0d                	li	s4,3
    } else if((x % 3) == 1){
    23e0:	4b05                	li	s6,1
      unlink("x");
    23e2:	00005a97          	auipc	s5,0x5
    23e6:	9e6a8a93          	addi	s5,s5,-1562 # 6dc8 <malloc+0x1ac>
      link("cat", "x");
    23ea:	00005b97          	auipc	s7,0x5
    23ee:	44eb8b93          	addi	s7,s7,1102 # 7838 <malloc+0xc1c>
    23f2:	a081                	j	2432 <linkunlink+0xa8>
    printf("%s: fork failed\n", s);
    23f4:	85a6                	mv	a1,s1
    23f6:	00005517          	auipc	a0,0x5
    23fa:	1ea50513          	addi	a0,a0,490 # 75e0 <malloc+0x9c4>
    23fe:	00004097          	auipc	ra,0x4
    2402:	760080e7          	jalr	1888(ra) # 6b5e <printf>
    exit(1,"");
    2406:	00006597          	auipc	a1,0x6
    240a:	f4258593          	addi	a1,a1,-190 # 8348 <malloc+0x172c>
    240e:	4505                	li	a0,1
    2410:	00004097          	auipc	ra,0x4
    2414:	3b6080e7          	jalr	950(ra) # 67c6 <exit>
      close(open("x", O_RDWR | O_CREATE));
    2418:	20200593          	li	a1,514
    241c:	8556                	mv	a0,s5
    241e:	00004097          	auipc	ra,0x4
    2422:	3e8080e7          	jalr	1000(ra) # 6806 <open>
    2426:	00004097          	auipc	ra,0x4
    242a:	3c8080e7          	jalr	968(ra) # 67ee <close>
  for(i = 0; i < 100; i++){
    242e:	34fd                	addiw	s1,s1,-1
    2430:	c88d                	beqz	s1,2462 <linkunlink+0xd8>
    x = x * 1103515245 + 12345;
    2432:	033c87bb          	mulw	a5,s9,s3
    2436:	012787bb          	addw	a5,a5,s2
    243a:	00078c9b          	sext.w	s9,a5
    if((x % 3) == 0){
    243e:	0347f7bb          	remuw	a5,a5,s4
    2442:	dbf9                	beqz	a5,2418 <linkunlink+0x8e>
    } else if((x % 3) == 1){
    2444:	01678863          	beq	a5,s6,2454 <linkunlink+0xca>
      unlink("x");
    2448:	8556                	mv	a0,s5
    244a:	00004097          	auipc	ra,0x4
    244e:	3cc080e7          	jalr	972(ra) # 6816 <unlink>
    2452:	bff1                	j	242e <linkunlink+0xa4>
      link("cat", "x");
    2454:	85d6                	mv	a1,s5
    2456:	855e                	mv	a0,s7
    2458:	00004097          	auipc	ra,0x4
    245c:	3ce080e7          	jalr	974(ra) # 6826 <link>
    2460:	b7f9                	j	242e <linkunlink+0xa4>
  if(pid)
    2462:	020c0863          	beqz	s8,2492 <linkunlink+0x108>
    wait(0,"");
    2466:	00006597          	auipc	a1,0x6
    246a:	ee258593          	addi	a1,a1,-286 # 8348 <malloc+0x172c>
    246e:	4501                	li	a0,0
    2470:	00004097          	auipc	ra,0x4
    2474:	35e080e7          	jalr	862(ra) # 67ce <wait>
}
    2478:	60e6                	ld	ra,88(sp)
    247a:	6446                	ld	s0,80(sp)
    247c:	64a6                	ld	s1,72(sp)
    247e:	6906                	ld	s2,64(sp)
    2480:	79e2                	ld	s3,56(sp)
    2482:	7a42                	ld	s4,48(sp)
    2484:	7aa2                	ld	s5,40(sp)
    2486:	7b02                	ld	s6,32(sp)
    2488:	6be2                	ld	s7,24(sp)
    248a:	6c42                	ld	s8,16(sp)
    248c:	6ca2                	ld	s9,8(sp)
    248e:	6125                	addi	sp,sp,96
    2490:	8082                	ret
    exit(0,"");
    2492:	00006597          	auipc	a1,0x6
    2496:	eb658593          	addi	a1,a1,-330 # 8348 <malloc+0x172c>
    249a:	4501                	li	a0,0
    249c:	00004097          	auipc	ra,0x4
    24a0:	32a080e7          	jalr	810(ra) # 67c6 <exit>

00000000000024a4 <forktest>:
{
    24a4:	7179                	addi	sp,sp,-48
    24a6:	f406                	sd	ra,40(sp)
    24a8:	f022                	sd	s0,32(sp)
    24aa:	ec26                	sd	s1,24(sp)
    24ac:	e84a                	sd	s2,16(sp)
    24ae:	e44e                	sd	s3,8(sp)
    24b0:	1800                	addi	s0,sp,48
    24b2:	89aa                	mv	s3,a0
  for(n=0; n<N; n++){
    24b4:	4481                	li	s1,0
    24b6:	3e800913          	li	s2,1000
    pid = fork();
    24ba:	00004097          	auipc	ra,0x4
    24be:	304080e7          	jalr	772(ra) # 67be <fork>
    if(pid < 0)
    24c2:	04054063          	bltz	a0,2502 <forktest+0x5e>
    if(pid == 0)
    24c6:	c515                	beqz	a0,24f2 <forktest+0x4e>
  for(n=0; n<N; n++){
    24c8:	2485                	addiw	s1,s1,1
    24ca:	ff2498e3          	bne	s1,s2,24ba <forktest+0x16>
    printf("%s: fork claimed to work 1000 times!\n", s);
    24ce:	85ce                	mv	a1,s3
    24d0:	00005517          	auipc	a0,0x5
    24d4:	38850513          	addi	a0,a0,904 # 7858 <malloc+0xc3c>
    24d8:	00004097          	auipc	ra,0x4
    24dc:	686080e7          	jalr	1670(ra) # 6b5e <printf>
    exit(1,"");
    24e0:	00006597          	auipc	a1,0x6
    24e4:	e6858593          	addi	a1,a1,-408 # 8348 <malloc+0x172c>
    24e8:	4505                	li	a0,1
    24ea:	00004097          	auipc	ra,0x4
    24ee:	2dc080e7          	jalr	732(ra) # 67c6 <exit>
      exit(0,"");
    24f2:	00006597          	auipc	a1,0x6
    24f6:	e5658593          	addi	a1,a1,-426 # 8348 <malloc+0x172c>
    24fa:	00004097          	auipc	ra,0x4
    24fe:	2cc080e7          	jalr	716(ra) # 67c6 <exit>
  if (n == 0) {
    2502:	c8a1                	beqz	s1,2552 <forktest+0xae>
  if(n == N){
    2504:	3e800793          	li	a5,1000
    2508:	fcf483e3          	beq	s1,a5,24ce <forktest+0x2a>
    if(wait(0,"") < 0){
    250c:	00006917          	auipc	s2,0x6
    2510:	e3c90913          	addi	s2,s2,-452 # 8348 <malloc+0x172c>
  for(; n > 0; n--){
    2514:	00905c63          	blez	s1,252c <forktest+0x88>
    if(wait(0,"") < 0){
    2518:	85ca                	mv	a1,s2
    251a:	4501                	li	a0,0
    251c:	00004097          	auipc	ra,0x4
    2520:	2b2080e7          	jalr	690(ra) # 67ce <wait>
    2524:	04054963          	bltz	a0,2576 <forktest+0xd2>
  for(; n > 0; n--){
    2528:	34fd                	addiw	s1,s1,-1
    252a:	f4fd                	bnez	s1,2518 <forktest+0x74>
  if(wait(0,"") != -1){
    252c:	00006597          	auipc	a1,0x6
    2530:	e1c58593          	addi	a1,a1,-484 # 8348 <malloc+0x172c>
    2534:	4501                	li	a0,0
    2536:	00004097          	auipc	ra,0x4
    253a:	298080e7          	jalr	664(ra) # 67ce <wait>
    253e:	57fd                	li	a5,-1
    2540:	04f51d63          	bne	a0,a5,259a <forktest+0xf6>
}
    2544:	70a2                	ld	ra,40(sp)
    2546:	7402                	ld	s0,32(sp)
    2548:	64e2                	ld	s1,24(sp)
    254a:	6942                	ld	s2,16(sp)
    254c:	69a2                	ld	s3,8(sp)
    254e:	6145                	addi	sp,sp,48
    2550:	8082                	ret
    printf("%s: no fork at all!\n", s);
    2552:	85ce                	mv	a1,s3
    2554:	00005517          	auipc	a0,0x5
    2558:	2ec50513          	addi	a0,a0,748 # 7840 <malloc+0xc24>
    255c:	00004097          	auipc	ra,0x4
    2560:	602080e7          	jalr	1538(ra) # 6b5e <printf>
    exit(1,"");
    2564:	00006597          	auipc	a1,0x6
    2568:	de458593          	addi	a1,a1,-540 # 8348 <malloc+0x172c>
    256c:	4505                	li	a0,1
    256e:	00004097          	auipc	ra,0x4
    2572:	258080e7          	jalr	600(ra) # 67c6 <exit>
      printf("%s: wait stopped early\n", s);
    2576:	85ce                	mv	a1,s3
    2578:	00005517          	auipc	a0,0x5
    257c:	30850513          	addi	a0,a0,776 # 7880 <malloc+0xc64>
    2580:	00004097          	auipc	ra,0x4
    2584:	5de080e7          	jalr	1502(ra) # 6b5e <printf>
      exit(1,"");
    2588:	00006597          	auipc	a1,0x6
    258c:	dc058593          	addi	a1,a1,-576 # 8348 <malloc+0x172c>
    2590:	4505                	li	a0,1
    2592:	00004097          	auipc	ra,0x4
    2596:	234080e7          	jalr	564(ra) # 67c6 <exit>
    printf("%s: wait got too many\n", s);
    259a:	85ce                	mv	a1,s3
    259c:	00005517          	auipc	a0,0x5
    25a0:	2fc50513          	addi	a0,a0,764 # 7898 <malloc+0xc7c>
    25a4:	00004097          	auipc	ra,0x4
    25a8:	5ba080e7          	jalr	1466(ra) # 6b5e <printf>
    exit(1,"");
    25ac:	00006597          	auipc	a1,0x6
    25b0:	d9c58593          	addi	a1,a1,-612 # 8348 <malloc+0x172c>
    25b4:	4505                	li	a0,1
    25b6:	00004097          	auipc	ra,0x4
    25ba:	210080e7          	jalr	528(ra) # 67c6 <exit>

00000000000025be <kernmem>:
{
    25be:	715d                	addi	sp,sp,-80
    25c0:	e486                	sd	ra,72(sp)
    25c2:	e0a2                	sd	s0,64(sp)
    25c4:	fc26                	sd	s1,56(sp)
    25c6:	f84a                	sd	s2,48(sp)
    25c8:	f44e                	sd	s3,40(sp)
    25ca:	f052                	sd	s4,32(sp)
    25cc:	ec56                	sd	s5,24(sp)
    25ce:	e85a                	sd	s6,16(sp)
    25d0:	0880                	addi	s0,sp,80
    25d2:	8b2a                	mv	s6,a0
  for(a = (char*)(KERNBASE); a < (char*) (KERNBASE+2000000); a += 50000){
    25d4:	4485                	li	s1,1
    25d6:	04fe                	slli	s1,s1,0x1f
    wait(&xstatus,"");
    25d8:	00006a97          	auipc	s5,0x6
    25dc:	d70a8a93          	addi	s5,s5,-656 # 8348 <malloc+0x172c>
    if(xstatus != -1)  // did kernel kill child?
    25e0:	5a7d                	li	s4,-1
  for(a = (char*)(KERNBASE); a < (char*) (KERNBASE+2000000); a += 50000){
    25e2:	69b1                	lui	s3,0xc
    25e4:	35098993          	addi	s3,s3,848 # c350 <uninit+0xde8>
    25e8:	1003d937          	lui	s2,0x1003d
    25ec:	090e                	slli	s2,s2,0x3
    25ee:	48090913          	addi	s2,s2,1152 # 1003d480 <base+0x1002c808>
    pid = fork();
    25f2:	00004097          	auipc	ra,0x4
    25f6:	1cc080e7          	jalr	460(ra) # 67be <fork>
    if(pid < 0){
    25fa:	02054b63          	bltz	a0,2630 <kernmem+0x72>
    if(pid == 0){
    25fe:	c939                	beqz	a0,2654 <kernmem+0x96>
    wait(&xstatus,"");
    2600:	85d6                	mv	a1,s5
    2602:	fbc40513          	addi	a0,s0,-68
    2606:	00004097          	auipc	ra,0x4
    260a:	1c8080e7          	jalr	456(ra) # 67ce <wait>
    if(xstatus != -1)  // did kernel kill child?
    260e:	fbc42783          	lw	a5,-68(s0)
    2612:	07479663          	bne	a5,s4,267e <kernmem+0xc0>
  for(a = (char*)(KERNBASE); a < (char*) (KERNBASE+2000000); a += 50000){
    2616:	94ce                	add	s1,s1,s3
    2618:	fd249de3          	bne	s1,s2,25f2 <kernmem+0x34>
}
    261c:	60a6                	ld	ra,72(sp)
    261e:	6406                	ld	s0,64(sp)
    2620:	74e2                	ld	s1,56(sp)
    2622:	7942                	ld	s2,48(sp)
    2624:	79a2                	ld	s3,40(sp)
    2626:	7a02                	ld	s4,32(sp)
    2628:	6ae2                	ld	s5,24(sp)
    262a:	6b42                	ld	s6,16(sp)
    262c:	6161                	addi	sp,sp,80
    262e:	8082                	ret
      printf("%s: fork failed\n", s);
    2630:	85da                	mv	a1,s6
    2632:	00005517          	auipc	a0,0x5
    2636:	fae50513          	addi	a0,a0,-82 # 75e0 <malloc+0x9c4>
    263a:	00004097          	auipc	ra,0x4
    263e:	524080e7          	jalr	1316(ra) # 6b5e <printf>
      exit(1,"");
    2642:	00006597          	auipc	a1,0x6
    2646:	d0658593          	addi	a1,a1,-762 # 8348 <malloc+0x172c>
    264a:	4505                	li	a0,1
    264c:	00004097          	auipc	ra,0x4
    2650:	17a080e7          	jalr	378(ra) # 67c6 <exit>
      printf("%s: oops could read %x = %x\n", s, a, *a);
    2654:	0004c683          	lbu	a3,0(s1)
    2658:	8626                	mv	a2,s1
    265a:	85da                	mv	a1,s6
    265c:	00005517          	auipc	a0,0x5
    2660:	25450513          	addi	a0,a0,596 # 78b0 <malloc+0xc94>
    2664:	00004097          	auipc	ra,0x4
    2668:	4fa080e7          	jalr	1274(ra) # 6b5e <printf>
      exit(1,"");
    266c:	00006597          	auipc	a1,0x6
    2670:	cdc58593          	addi	a1,a1,-804 # 8348 <malloc+0x172c>
    2674:	4505                	li	a0,1
    2676:	00004097          	auipc	ra,0x4
    267a:	150080e7          	jalr	336(ra) # 67c6 <exit>
      exit(1,"");
    267e:	00006597          	auipc	a1,0x6
    2682:	cca58593          	addi	a1,a1,-822 # 8348 <malloc+0x172c>
    2686:	4505                	li	a0,1
    2688:	00004097          	auipc	ra,0x4
    268c:	13e080e7          	jalr	318(ra) # 67c6 <exit>

0000000000002690 <MAXVAplus>:
{
    2690:	7139                	addi	sp,sp,-64
    2692:	fc06                	sd	ra,56(sp)
    2694:	f822                	sd	s0,48(sp)
    2696:	f426                	sd	s1,40(sp)
    2698:	f04a                	sd	s2,32(sp)
    269a:	ec4e                	sd	s3,24(sp)
    269c:	0080                	addi	s0,sp,64
  volatile uint64 a = MAXVA;
    269e:	4785                	li	a5,1
    26a0:	179a                	slli	a5,a5,0x26
    26a2:	fcf43423          	sd	a5,-56(s0)
  for( ; a != 0; a <<= 1){
    26a6:	fc843783          	ld	a5,-56(s0)
    26aa:	c3a9                	beqz	a5,26ec <MAXVAplus+0x5c>
    26ac:	89aa                	mv	s3,a0
    wait(&xstatus,"");
    26ae:	00006917          	auipc	s2,0x6
    26b2:	c9a90913          	addi	s2,s2,-870 # 8348 <malloc+0x172c>
    if(xstatus != -1)  // did kernel kill child?
    26b6:	54fd                	li	s1,-1
    pid = fork();
    26b8:	00004097          	auipc	ra,0x4
    26bc:	106080e7          	jalr	262(ra) # 67be <fork>
    if(pid < 0){
    26c0:	02054d63          	bltz	a0,26fa <MAXVAplus+0x6a>
    if(pid == 0){
    26c4:	cd29                	beqz	a0,271e <MAXVAplus+0x8e>
    wait(&xstatus,"");
    26c6:	85ca                	mv	a1,s2
    26c8:	fc440513          	addi	a0,s0,-60
    26cc:	00004097          	auipc	ra,0x4
    26d0:	102080e7          	jalr	258(ra) # 67ce <wait>
    if(xstatus != -1)  // did kernel kill child?
    26d4:	fc442783          	lw	a5,-60(s0)
    26d8:	06979d63          	bne	a5,s1,2752 <MAXVAplus+0xc2>
  for( ; a != 0; a <<= 1){
    26dc:	fc843783          	ld	a5,-56(s0)
    26e0:	0786                	slli	a5,a5,0x1
    26e2:	fcf43423          	sd	a5,-56(s0)
    26e6:	fc843783          	ld	a5,-56(s0)
    26ea:	f7f9                	bnez	a5,26b8 <MAXVAplus+0x28>
}
    26ec:	70e2                	ld	ra,56(sp)
    26ee:	7442                	ld	s0,48(sp)
    26f0:	74a2                	ld	s1,40(sp)
    26f2:	7902                	ld	s2,32(sp)
    26f4:	69e2                	ld	s3,24(sp)
    26f6:	6121                	addi	sp,sp,64
    26f8:	8082                	ret
      printf("%s: fork failed\n", s);
    26fa:	85ce                	mv	a1,s3
    26fc:	00005517          	auipc	a0,0x5
    2700:	ee450513          	addi	a0,a0,-284 # 75e0 <malloc+0x9c4>
    2704:	00004097          	auipc	ra,0x4
    2708:	45a080e7          	jalr	1114(ra) # 6b5e <printf>
      exit(1,"");
    270c:	00006597          	auipc	a1,0x6
    2710:	c3c58593          	addi	a1,a1,-964 # 8348 <malloc+0x172c>
    2714:	4505                	li	a0,1
    2716:	00004097          	auipc	ra,0x4
    271a:	0b0080e7          	jalr	176(ra) # 67c6 <exit>
      *(char*)a = 99;
    271e:	fc843783          	ld	a5,-56(s0)
    2722:	06300713          	li	a4,99
    2726:	00e78023          	sb	a4,0(a5)
      printf("%s: oops wrote %x\n", s, a);
    272a:	fc843603          	ld	a2,-56(s0)
    272e:	85ce                	mv	a1,s3
    2730:	00005517          	auipc	a0,0x5
    2734:	1a050513          	addi	a0,a0,416 # 78d0 <malloc+0xcb4>
    2738:	00004097          	auipc	ra,0x4
    273c:	426080e7          	jalr	1062(ra) # 6b5e <printf>
      exit(1,"");
    2740:	00006597          	auipc	a1,0x6
    2744:	c0858593          	addi	a1,a1,-1016 # 8348 <malloc+0x172c>
    2748:	4505                	li	a0,1
    274a:	00004097          	auipc	ra,0x4
    274e:	07c080e7          	jalr	124(ra) # 67c6 <exit>
      exit(1,"");
    2752:	00006597          	auipc	a1,0x6
    2756:	bf658593          	addi	a1,a1,-1034 # 8348 <malloc+0x172c>
    275a:	4505                	li	a0,1
    275c:	00004097          	auipc	ra,0x4
    2760:	06a080e7          	jalr	106(ra) # 67c6 <exit>

0000000000002764 <bigargtest>:
{
    2764:	7179                	addi	sp,sp,-48
    2766:	f406                	sd	ra,40(sp)
    2768:	f022                	sd	s0,32(sp)
    276a:	ec26                	sd	s1,24(sp)
    276c:	1800                	addi	s0,sp,48
    276e:	84aa                	mv	s1,a0
  unlink("bigarg-ok");
    2770:	00005517          	auipc	a0,0x5
    2774:	17850513          	addi	a0,a0,376 # 78e8 <malloc+0xccc>
    2778:	00004097          	auipc	ra,0x4
    277c:	09e080e7          	jalr	158(ra) # 6816 <unlink>
  pid = fork();
    2780:	00004097          	auipc	ra,0x4
    2784:	03e080e7          	jalr	62(ra) # 67be <fork>
  if(pid == 0){
    2788:	c521                	beqz	a0,27d0 <bigargtest+0x6c>
  } else if(pid < 0){
    278a:	0a054863          	bltz	a0,283a <bigargtest+0xd6>
  wait(&xstatus,"");
    278e:	00006597          	auipc	a1,0x6
    2792:	bba58593          	addi	a1,a1,-1094 # 8348 <malloc+0x172c>
    2796:	fdc40513          	addi	a0,s0,-36
    279a:	00004097          	auipc	ra,0x4
    279e:	034080e7          	jalr	52(ra) # 67ce <wait>
  if(xstatus != 0)
    27a2:	fdc42503          	lw	a0,-36(s0)
    27a6:	ed45                	bnez	a0,285e <bigargtest+0xfa>
  fd = open("bigarg-ok", 0);
    27a8:	4581                	li	a1,0
    27aa:	00005517          	auipc	a0,0x5
    27ae:	13e50513          	addi	a0,a0,318 # 78e8 <malloc+0xccc>
    27b2:	00004097          	auipc	ra,0x4
    27b6:	054080e7          	jalr	84(ra) # 6806 <open>
  if(fd < 0){
    27ba:	0a054a63          	bltz	a0,286e <bigargtest+0x10a>
  close(fd);
    27be:	00004097          	auipc	ra,0x4
    27c2:	030080e7          	jalr	48(ra) # 67ee <close>
}
    27c6:	70a2                	ld	ra,40(sp)
    27c8:	7402                	ld	s0,32(sp)
    27ca:	64e2                	ld	s1,24(sp)
    27cc:	6145                	addi	sp,sp,48
    27ce:	8082                	ret
    27d0:	00008797          	auipc	a5,0x8
    27d4:	c9078793          	addi	a5,a5,-880 # a460 <args.1>
    27d8:	00008697          	auipc	a3,0x8
    27dc:	d8068693          	addi	a3,a3,-640 # a558 <args.1+0xf8>
      args[i] = "bigargs test: failed\n                                                                                                                                                                                                       ";
    27e0:	00005717          	auipc	a4,0x5
    27e4:	11870713          	addi	a4,a4,280 # 78f8 <malloc+0xcdc>
    27e8:	e398                	sd	a4,0(a5)
    for(i = 0; i < MAXARG-1; i++)
    27ea:	07a1                	addi	a5,a5,8
    27ec:	fed79ee3          	bne	a5,a3,27e8 <bigargtest+0x84>
    args[MAXARG-1] = 0;
    27f0:	00008597          	auipc	a1,0x8
    27f4:	c7058593          	addi	a1,a1,-912 # a460 <args.1>
    27f8:	0e05bc23          	sd	zero,248(a1)
    exec("echo", args);
    27fc:	00004517          	auipc	a0,0x4
    2800:	55c50513          	addi	a0,a0,1372 # 6d58 <malloc+0x13c>
    2804:	00004097          	auipc	ra,0x4
    2808:	ffa080e7          	jalr	-6(ra) # 67fe <exec>
    fd = open("bigarg-ok", O_CREATE);
    280c:	20000593          	li	a1,512
    2810:	00005517          	auipc	a0,0x5
    2814:	0d850513          	addi	a0,a0,216 # 78e8 <malloc+0xccc>
    2818:	00004097          	auipc	ra,0x4
    281c:	fee080e7          	jalr	-18(ra) # 6806 <open>
    close(fd);
    2820:	00004097          	auipc	ra,0x4
    2824:	fce080e7          	jalr	-50(ra) # 67ee <close>
    exit(0,"");
    2828:	00006597          	auipc	a1,0x6
    282c:	b2058593          	addi	a1,a1,-1248 # 8348 <malloc+0x172c>
    2830:	4501                	li	a0,0
    2832:	00004097          	auipc	ra,0x4
    2836:	f94080e7          	jalr	-108(ra) # 67c6 <exit>
    printf("%s: bigargtest: fork failed\n", s);
    283a:	85a6                	mv	a1,s1
    283c:	00005517          	auipc	a0,0x5
    2840:	19c50513          	addi	a0,a0,412 # 79d8 <malloc+0xdbc>
    2844:	00004097          	auipc	ra,0x4
    2848:	31a080e7          	jalr	794(ra) # 6b5e <printf>
    exit(1,"");
    284c:	00006597          	auipc	a1,0x6
    2850:	afc58593          	addi	a1,a1,-1284 # 8348 <malloc+0x172c>
    2854:	4505                	li	a0,1
    2856:	00004097          	auipc	ra,0x4
    285a:	f70080e7          	jalr	-144(ra) # 67c6 <exit>
    exit(xstatus,"");
    285e:	00006597          	auipc	a1,0x6
    2862:	aea58593          	addi	a1,a1,-1302 # 8348 <malloc+0x172c>
    2866:	00004097          	auipc	ra,0x4
    286a:	f60080e7          	jalr	-160(ra) # 67c6 <exit>
    printf("%s: bigarg test failed!\n", s);
    286e:	85a6                	mv	a1,s1
    2870:	00005517          	auipc	a0,0x5
    2874:	18850513          	addi	a0,a0,392 # 79f8 <malloc+0xddc>
    2878:	00004097          	auipc	ra,0x4
    287c:	2e6080e7          	jalr	742(ra) # 6b5e <printf>
    exit(1,"");
    2880:	00006597          	auipc	a1,0x6
    2884:	ac858593          	addi	a1,a1,-1336 # 8348 <malloc+0x172c>
    2888:	4505                	li	a0,1
    288a:	00004097          	auipc	ra,0x4
    288e:	f3c080e7          	jalr	-196(ra) # 67c6 <exit>

0000000000002892 <stacktest>:
{
    2892:	7179                	addi	sp,sp,-48
    2894:	f406                	sd	ra,40(sp)
    2896:	f022                	sd	s0,32(sp)
    2898:	ec26                	sd	s1,24(sp)
    289a:	1800                	addi	s0,sp,48
    289c:	84aa                	mv	s1,a0
  pid = fork();
    289e:	00004097          	auipc	ra,0x4
    28a2:	f20080e7          	jalr	-224(ra) # 67be <fork>
  if(pid == 0) {
    28a6:	c915                	beqz	a0,28da <stacktest+0x48>
  } else if(pid < 0){
    28a8:	06054063          	bltz	a0,2908 <stacktest+0x76>
  wait(&xstatus,"");
    28ac:	00006597          	auipc	a1,0x6
    28b0:	a9c58593          	addi	a1,a1,-1380 # 8348 <malloc+0x172c>
    28b4:	fdc40513          	addi	a0,s0,-36
    28b8:	00004097          	auipc	ra,0x4
    28bc:	f16080e7          	jalr	-234(ra) # 67ce <wait>
  if(xstatus == -1)  // kernel killed child?
    28c0:	fdc42503          	lw	a0,-36(s0)
    28c4:	57fd                	li	a5,-1
    28c6:	06f50363          	beq	a0,a5,292c <stacktest+0x9a>
    exit(xstatus,"");
    28ca:	00006597          	auipc	a1,0x6
    28ce:	a7e58593          	addi	a1,a1,-1410 # 8348 <malloc+0x172c>
    28d2:	00004097          	auipc	ra,0x4
    28d6:	ef4080e7          	jalr	-268(ra) # 67c6 <exit>

static inline uint64
r_sp()
{
  uint64 x;
  asm volatile("mv %0, sp" : "=r" (x) );
    28da:	870a                	mv	a4,sp
    printf("%s: stacktest: read below stack %p\n", s, *sp);
    28dc:	77fd                	lui	a5,0xfffff
    28de:	97ba                	add	a5,a5,a4
    28e0:	0007c603          	lbu	a2,0(a5) # fffffffffffff000 <base+0xfffffffffffee388>
    28e4:	85a6                	mv	a1,s1
    28e6:	00005517          	auipc	a0,0x5
    28ea:	13250513          	addi	a0,a0,306 # 7a18 <malloc+0xdfc>
    28ee:	00004097          	auipc	ra,0x4
    28f2:	270080e7          	jalr	624(ra) # 6b5e <printf>
    exit(1,"");
    28f6:	00006597          	auipc	a1,0x6
    28fa:	a5258593          	addi	a1,a1,-1454 # 8348 <malloc+0x172c>
    28fe:	4505                	li	a0,1
    2900:	00004097          	auipc	ra,0x4
    2904:	ec6080e7          	jalr	-314(ra) # 67c6 <exit>
    printf("%s: fork failed\n", s);
    2908:	85a6                	mv	a1,s1
    290a:	00005517          	auipc	a0,0x5
    290e:	cd650513          	addi	a0,a0,-810 # 75e0 <malloc+0x9c4>
    2912:	00004097          	auipc	ra,0x4
    2916:	24c080e7          	jalr	588(ra) # 6b5e <printf>
    exit(1,"");
    291a:	00006597          	auipc	a1,0x6
    291e:	a2e58593          	addi	a1,a1,-1490 # 8348 <malloc+0x172c>
    2922:	4505                	li	a0,1
    2924:	00004097          	auipc	ra,0x4
    2928:	ea2080e7          	jalr	-350(ra) # 67c6 <exit>
    exit(0,"");
    292c:	00006597          	auipc	a1,0x6
    2930:	a1c58593          	addi	a1,a1,-1508 # 8348 <malloc+0x172c>
    2934:	4501                	li	a0,0
    2936:	00004097          	auipc	ra,0x4
    293a:	e90080e7          	jalr	-368(ra) # 67c6 <exit>

000000000000293e <textwrite>:
{
    293e:	7179                	addi	sp,sp,-48
    2940:	f406                	sd	ra,40(sp)
    2942:	f022                	sd	s0,32(sp)
    2944:	ec26                	sd	s1,24(sp)
    2946:	1800                	addi	s0,sp,48
    2948:	84aa                	mv	s1,a0
  pid = fork();
    294a:	00004097          	auipc	ra,0x4
    294e:	e74080e7          	jalr	-396(ra) # 67be <fork>
  if(pid == 0) {
    2952:	c915                	beqz	a0,2986 <textwrite+0x48>
  } else if(pid < 0){
    2954:	04054563          	bltz	a0,299e <textwrite+0x60>
  wait(&xstatus,"");
    2958:	00006597          	auipc	a1,0x6
    295c:	9f058593          	addi	a1,a1,-1552 # 8348 <malloc+0x172c>
    2960:	fdc40513          	addi	a0,s0,-36
    2964:	00004097          	auipc	ra,0x4
    2968:	e6a080e7          	jalr	-406(ra) # 67ce <wait>
  if(xstatus == -1)  // kernel killed child?
    296c:	fdc42503          	lw	a0,-36(s0)
    2970:	57fd                	li	a5,-1
    2972:	04f50863          	beq	a0,a5,29c2 <textwrite+0x84>
    exit(xstatus,"");
    2976:	00006597          	auipc	a1,0x6
    297a:	9d258593          	addi	a1,a1,-1582 # 8348 <malloc+0x172c>
    297e:	00004097          	auipc	ra,0x4
    2982:	e48080e7          	jalr	-440(ra) # 67c6 <exit>
    *addr = 10;
    2986:	47a9                	li	a5,10
    2988:	00f02023          	sw	a5,0(zero) # 0 <copyinstr1>
    exit(1,"");
    298c:	00006597          	auipc	a1,0x6
    2990:	9bc58593          	addi	a1,a1,-1604 # 8348 <malloc+0x172c>
    2994:	4505                	li	a0,1
    2996:	00004097          	auipc	ra,0x4
    299a:	e30080e7          	jalr	-464(ra) # 67c6 <exit>
    printf("%s: fork failed\n", s);
    299e:	85a6                	mv	a1,s1
    29a0:	00005517          	auipc	a0,0x5
    29a4:	c4050513          	addi	a0,a0,-960 # 75e0 <malloc+0x9c4>
    29a8:	00004097          	auipc	ra,0x4
    29ac:	1b6080e7          	jalr	438(ra) # 6b5e <printf>
    exit(1,"");
    29b0:	00006597          	auipc	a1,0x6
    29b4:	99858593          	addi	a1,a1,-1640 # 8348 <malloc+0x172c>
    29b8:	4505                	li	a0,1
    29ba:	00004097          	auipc	ra,0x4
    29be:	e0c080e7          	jalr	-500(ra) # 67c6 <exit>
    exit(0,"");
    29c2:	00006597          	auipc	a1,0x6
    29c6:	98658593          	addi	a1,a1,-1658 # 8348 <malloc+0x172c>
    29ca:	4501                	li	a0,0
    29cc:	00004097          	auipc	ra,0x4
    29d0:	dfa080e7          	jalr	-518(ra) # 67c6 <exit>

00000000000029d4 <manywrites>:
{
    29d4:	711d                	addi	sp,sp,-96
    29d6:	ec86                	sd	ra,88(sp)
    29d8:	e8a2                	sd	s0,80(sp)
    29da:	e4a6                	sd	s1,72(sp)
    29dc:	e0ca                	sd	s2,64(sp)
    29de:	fc4e                	sd	s3,56(sp)
    29e0:	f852                	sd	s4,48(sp)
    29e2:	f456                	sd	s5,40(sp)
    29e4:	f05a                	sd	s6,32(sp)
    29e6:	ec5e                	sd	s7,24(sp)
    29e8:	1080                	addi	s0,sp,96
    29ea:	8aaa                	mv	s5,a0
  for(int ci = 0; ci < nchildren; ci++){
    29ec:	4981                	li	s3,0
    29ee:	4911                	li	s2,4
    int pid = fork();
    29f0:	00004097          	auipc	ra,0x4
    29f4:	dce080e7          	jalr	-562(ra) # 67be <fork>
    29f8:	84aa                	mv	s1,a0
    if(pid < 0){
    29fa:	04054363          	bltz	a0,2a40 <manywrites+0x6c>
    if(pid == 0){
    29fe:	c135                	beqz	a0,2a62 <manywrites+0x8e>
  for(int ci = 0; ci < nchildren; ci++){
    2a00:	2985                	addiw	s3,s3,1
    2a02:	ff2997e3          	bne	s3,s2,29f0 <manywrites+0x1c>
    2a06:	4491                	li	s1,4
    wait(&st,"");
    2a08:	00006917          	auipc	s2,0x6
    2a0c:	94090913          	addi	s2,s2,-1728 # 8348 <malloc+0x172c>
    int st = 0;
    2a10:	fa042423          	sw	zero,-88(s0)
    wait(&st,"");
    2a14:	85ca                	mv	a1,s2
    2a16:	fa840513          	addi	a0,s0,-88
    2a1a:	00004097          	auipc	ra,0x4
    2a1e:	db4080e7          	jalr	-588(ra) # 67ce <wait>
    if(st != 0)
    2a22:	fa842503          	lw	a0,-88(s0)
    2a26:	12051263          	bnez	a0,2b4a <manywrites+0x176>
  for(int ci = 0; ci < nchildren; ci++){
    2a2a:	34fd                	addiw	s1,s1,-1
    2a2c:	f0f5                	bnez	s1,2a10 <manywrites+0x3c>
  exit(0,"");
    2a2e:	00006597          	auipc	a1,0x6
    2a32:	91a58593          	addi	a1,a1,-1766 # 8348 <malloc+0x172c>
    2a36:	4501                	li	a0,0
    2a38:	00004097          	auipc	ra,0x4
    2a3c:	d8e080e7          	jalr	-626(ra) # 67c6 <exit>
      printf("fork failed\n");
    2a40:	00005517          	auipc	a0,0x5
    2a44:	fa850513          	addi	a0,a0,-88 # 79e8 <malloc+0xdcc>
    2a48:	00004097          	auipc	ra,0x4
    2a4c:	116080e7          	jalr	278(ra) # 6b5e <printf>
      exit(1,"");
    2a50:	00006597          	auipc	a1,0x6
    2a54:	8f858593          	addi	a1,a1,-1800 # 8348 <malloc+0x172c>
    2a58:	4505                	li	a0,1
    2a5a:	00004097          	auipc	ra,0x4
    2a5e:	d6c080e7          	jalr	-660(ra) # 67c6 <exit>
      name[0] = 'b';
    2a62:	06200793          	li	a5,98
    2a66:	faf40423          	sb	a5,-88(s0)
      name[1] = 'a' + ci;
    2a6a:	0619879b          	addiw	a5,s3,97
    2a6e:	faf404a3          	sb	a5,-87(s0)
      name[2] = '\0';
    2a72:	fa040523          	sb	zero,-86(s0)
      unlink(name);
    2a76:	fa840513          	addi	a0,s0,-88
    2a7a:	00004097          	auipc	ra,0x4
    2a7e:	d9c080e7          	jalr	-612(ra) # 6816 <unlink>
    2a82:	4bf9                	li	s7,30
          int cc = write(fd, buf, sz);
    2a84:	0000bb17          	auipc	s6,0xb
    2a88:	1f4b0b13          	addi	s6,s6,500 # dc78 <buf>
        for(int i = 0; i < ci+1; i++){
    2a8c:	8a26                	mv	s4,s1
    2a8e:	0209ce63          	bltz	s3,2aca <manywrites+0xf6>
          int fd = open(name, O_CREATE | O_RDWR);
    2a92:	20200593          	li	a1,514
    2a96:	fa840513          	addi	a0,s0,-88
    2a9a:	00004097          	auipc	ra,0x4
    2a9e:	d6c080e7          	jalr	-660(ra) # 6806 <open>
    2aa2:	892a                	mv	s2,a0
          if(fd < 0){
    2aa4:	04054b63          	bltz	a0,2afa <manywrites+0x126>
          int cc = write(fd, buf, sz);
    2aa8:	660d                	lui	a2,0x3
    2aaa:	85da                	mv	a1,s6
    2aac:	00004097          	auipc	ra,0x4
    2ab0:	d3a080e7          	jalr	-710(ra) # 67e6 <write>
          if(cc != sz){
    2ab4:	678d                	lui	a5,0x3
    2ab6:	06f51663          	bne	a0,a5,2b22 <manywrites+0x14e>
          close(fd);
    2aba:	854a                	mv	a0,s2
    2abc:	00004097          	auipc	ra,0x4
    2ac0:	d32080e7          	jalr	-718(ra) # 67ee <close>
        for(int i = 0; i < ci+1; i++){
    2ac4:	2a05                	addiw	s4,s4,1
    2ac6:	fd49d6e3          	bge	s3,s4,2a92 <manywrites+0xbe>
        unlink(name);
    2aca:	fa840513          	addi	a0,s0,-88
    2ace:	00004097          	auipc	ra,0x4
    2ad2:	d48080e7          	jalr	-696(ra) # 6816 <unlink>
      for(int iters = 0; iters < howmany; iters++){
    2ad6:	3bfd                	addiw	s7,s7,-1
    2ad8:	fa0b9ae3          	bnez	s7,2a8c <manywrites+0xb8>
      unlink(name);
    2adc:	fa840513          	addi	a0,s0,-88
    2ae0:	00004097          	auipc	ra,0x4
    2ae4:	d36080e7          	jalr	-714(ra) # 6816 <unlink>
      exit(0,"");
    2ae8:	00006597          	auipc	a1,0x6
    2aec:	86058593          	addi	a1,a1,-1952 # 8348 <malloc+0x172c>
    2af0:	4501                	li	a0,0
    2af2:	00004097          	auipc	ra,0x4
    2af6:	cd4080e7          	jalr	-812(ra) # 67c6 <exit>
            printf("%s: cannot create %s\n", s, name);
    2afa:	fa840613          	addi	a2,s0,-88
    2afe:	85d6                	mv	a1,s5
    2b00:	00005517          	auipc	a0,0x5
    2b04:	f4050513          	addi	a0,a0,-192 # 7a40 <malloc+0xe24>
    2b08:	00004097          	auipc	ra,0x4
    2b0c:	056080e7          	jalr	86(ra) # 6b5e <printf>
            exit(1,"");
    2b10:	00006597          	auipc	a1,0x6
    2b14:	83858593          	addi	a1,a1,-1992 # 8348 <malloc+0x172c>
    2b18:	4505                	li	a0,1
    2b1a:	00004097          	auipc	ra,0x4
    2b1e:	cac080e7          	jalr	-852(ra) # 67c6 <exit>
            printf("%s: write(%d) ret %d\n", s, sz, cc);
    2b22:	86aa                	mv	a3,a0
    2b24:	660d                	lui	a2,0x3
    2b26:	85d6                	mv	a1,s5
    2b28:	00004517          	auipc	a0,0x4
    2b2c:	30050513          	addi	a0,a0,768 # 6e28 <malloc+0x20c>
    2b30:	00004097          	auipc	ra,0x4
    2b34:	02e080e7          	jalr	46(ra) # 6b5e <printf>
            exit(1,"");
    2b38:	00006597          	auipc	a1,0x6
    2b3c:	81058593          	addi	a1,a1,-2032 # 8348 <malloc+0x172c>
    2b40:	4505                	li	a0,1
    2b42:	00004097          	auipc	ra,0x4
    2b46:	c84080e7          	jalr	-892(ra) # 67c6 <exit>
      exit(st,"");
    2b4a:	00005597          	auipc	a1,0x5
    2b4e:	7fe58593          	addi	a1,a1,2046 # 8348 <malloc+0x172c>
    2b52:	00004097          	auipc	ra,0x4
    2b56:	c74080e7          	jalr	-908(ra) # 67c6 <exit>

0000000000002b5a <copyinstr3>:
{
    2b5a:	7179                	addi	sp,sp,-48
    2b5c:	f406                	sd	ra,40(sp)
    2b5e:	f022                	sd	s0,32(sp)
    2b60:	ec26                	sd	s1,24(sp)
    2b62:	1800                	addi	s0,sp,48
  sbrk(8192);
    2b64:	6509                	lui	a0,0x2
    2b66:	00004097          	auipc	ra,0x4
    2b6a:	ce8080e7          	jalr	-792(ra) # 684e <sbrk>
  uint64 top = (uint64) sbrk(0);
    2b6e:	4501                	li	a0,0
    2b70:	00004097          	auipc	ra,0x4
    2b74:	cde080e7          	jalr	-802(ra) # 684e <sbrk>
  if((top % PGSIZE) != 0){
    2b78:	03451793          	slli	a5,a0,0x34
    2b7c:	e3c9                	bnez	a5,2bfe <copyinstr3+0xa4>
  top = (uint64) sbrk(0);
    2b7e:	4501                	li	a0,0
    2b80:	00004097          	auipc	ra,0x4
    2b84:	cce080e7          	jalr	-818(ra) # 684e <sbrk>
  if(top % PGSIZE){
    2b88:	03451793          	slli	a5,a0,0x34
    2b8c:	e3d9                	bnez	a5,2c12 <copyinstr3+0xb8>
  char *b = (char *) (top - 1);
    2b8e:	fff50493          	addi	s1,a0,-1 # 1fff <forkfork+0x79>
  *b = 'x';
    2b92:	07800793          	li	a5,120
    2b96:	fef50fa3          	sb	a5,-1(a0)
  int ret = unlink(b);
    2b9a:	8526                	mv	a0,s1
    2b9c:	00004097          	auipc	ra,0x4
    2ba0:	c7a080e7          	jalr	-902(ra) # 6816 <unlink>
  if(ret != -1){
    2ba4:	57fd                	li	a5,-1
    2ba6:	08f51763          	bne	a0,a5,2c34 <copyinstr3+0xda>
  int fd = open(b, O_CREATE | O_WRONLY);
    2baa:	20100593          	li	a1,513
    2bae:	8526                	mv	a0,s1
    2bb0:	00004097          	auipc	ra,0x4
    2bb4:	c56080e7          	jalr	-938(ra) # 6806 <open>
  if(fd != -1){
    2bb8:	57fd                	li	a5,-1
    2bba:	0af51063          	bne	a0,a5,2c5a <copyinstr3+0x100>
  ret = link(b, b);
    2bbe:	85a6                	mv	a1,s1
    2bc0:	8526                	mv	a0,s1
    2bc2:	00004097          	auipc	ra,0x4
    2bc6:	c64080e7          	jalr	-924(ra) # 6826 <link>
  if(ret != -1){
    2bca:	57fd                	li	a5,-1
    2bcc:	0af51a63          	bne	a0,a5,2c80 <copyinstr3+0x126>
  char *args[] = { "xx", 0 };
    2bd0:	00006797          	auipc	a5,0x6
    2bd4:	b6878793          	addi	a5,a5,-1176 # 8738 <malloc+0x1b1c>
    2bd8:	fcf43823          	sd	a5,-48(s0)
    2bdc:	fc043c23          	sd	zero,-40(s0)
  ret = exec(b, args);
    2be0:	fd040593          	addi	a1,s0,-48
    2be4:	8526                	mv	a0,s1
    2be6:	00004097          	auipc	ra,0x4
    2bea:	c18080e7          	jalr	-1000(ra) # 67fe <exec>
  if(ret != -1){
    2bee:	57fd                	li	a5,-1
    2bf0:	0af51c63          	bne	a0,a5,2ca8 <copyinstr3+0x14e>
}
    2bf4:	70a2                	ld	ra,40(sp)
    2bf6:	7402                	ld	s0,32(sp)
    2bf8:	64e2                	ld	s1,24(sp)
    2bfa:	6145                	addi	sp,sp,48
    2bfc:	8082                	ret
    sbrk(PGSIZE - (top % PGSIZE));
    2bfe:	0347d513          	srli	a0,a5,0x34
    2c02:	6785                	lui	a5,0x1
    2c04:	40a7853b          	subw	a0,a5,a0
    2c08:	00004097          	auipc	ra,0x4
    2c0c:	c46080e7          	jalr	-954(ra) # 684e <sbrk>
    2c10:	b7bd                	j	2b7e <copyinstr3+0x24>
    printf("oops\n");
    2c12:	00005517          	auipc	a0,0x5
    2c16:	e4650513          	addi	a0,a0,-442 # 7a58 <malloc+0xe3c>
    2c1a:	00004097          	auipc	ra,0x4
    2c1e:	f44080e7          	jalr	-188(ra) # 6b5e <printf>
    exit(1,"");
    2c22:	00005597          	auipc	a1,0x5
    2c26:	72658593          	addi	a1,a1,1830 # 8348 <malloc+0x172c>
    2c2a:	4505                	li	a0,1
    2c2c:	00004097          	auipc	ra,0x4
    2c30:	b9a080e7          	jalr	-1126(ra) # 67c6 <exit>
    printf("unlink(%s) returned %d, not -1\n", b, ret);
    2c34:	862a                	mv	a2,a0
    2c36:	85a6                	mv	a1,s1
    2c38:	00005517          	auipc	a0,0x5
    2c3c:	8c850513          	addi	a0,a0,-1848 # 7500 <malloc+0x8e4>
    2c40:	00004097          	auipc	ra,0x4
    2c44:	f1e080e7          	jalr	-226(ra) # 6b5e <printf>
    exit(1,"");
    2c48:	00005597          	auipc	a1,0x5
    2c4c:	70058593          	addi	a1,a1,1792 # 8348 <malloc+0x172c>
    2c50:	4505                	li	a0,1
    2c52:	00004097          	auipc	ra,0x4
    2c56:	b74080e7          	jalr	-1164(ra) # 67c6 <exit>
    printf("open(%s) returned %d, not -1\n", b, fd);
    2c5a:	862a                	mv	a2,a0
    2c5c:	85a6                	mv	a1,s1
    2c5e:	00005517          	auipc	a0,0x5
    2c62:	8c250513          	addi	a0,a0,-1854 # 7520 <malloc+0x904>
    2c66:	00004097          	auipc	ra,0x4
    2c6a:	ef8080e7          	jalr	-264(ra) # 6b5e <printf>
    exit(1,"");
    2c6e:	00005597          	auipc	a1,0x5
    2c72:	6da58593          	addi	a1,a1,1754 # 8348 <malloc+0x172c>
    2c76:	4505                	li	a0,1
    2c78:	00004097          	auipc	ra,0x4
    2c7c:	b4e080e7          	jalr	-1202(ra) # 67c6 <exit>
    printf("link(%s, %s) returned %d, not -1\n", b, b, ret);
    2c80:	86aa                	mv	a3,a0
    2c82:	8626                	mv	a2,s1
    2c84:	85a6                	mv	a1,s1
    2c86:	00005517          	auipc	a0,0x5
    2c8a:	8ba50513          	addi	a0,a0,-1862 # 7540 <malloc+0x924>
    2c8e:	00004097          	auipc	ra,0x4
    2c92:	ed0080e7          	jalr	-304(ra) # 6b5e <printf>
    exit(1,"");
    2c96:	00005597          	auipc	a1,0x5
    2c9a:	6b258593          	addi	a1,a1,1714 # 8348 <malloc+0x172c>
    2c9e:	4505                	li	a0,1
    2ca0:	00004097          	auipc	ra,0x4
    2ca4:	b26080e7          	jalr	-1242(ra) # 67c6 <exit>
    printf("exec(%s) returned %d, not -1\n", b, fd);
    2ca8:	567d                	li	a2,-1
    2caa:	85a6                	mv	a1,s1
    2cac:	00005517          	auipc	a0,0x5
    2cb0:	8bc50513          	addi	a0,a0,-1860 # 7568 <malloc+0x94c>
    2cb4:	00004097          	auipc	ra,0x4
    2cb8:	eaa080e7          	jalr	-342(ra) # 6b5e <printf>
    exit(1,"");
    2cbc:	00005597          	auipc	a1,0x5
    2cc0:	68c58593          	addi	a1,a1,1676 # 8348 <malloc+0x172c>
    2cc4:	4505                	li	a0,1
    2cc6:	00004097          	auipc	ra,0x4
    2cca:	b00080e7          	jalr	-1280(ra) # 67c6 <exit>

0000000000002cce <rwsbrk>:
{
    2cce:	1101                	addi	sp,sp,-32
    2cd0:	ec06                	sd	ra,24(sp)
    2cd2:	e822                	sd	s0,16(sp)
    2cd4:	e426                	sd	s1,8(sp)
    2cd6:	e04a                	sd	s2,0(sp)
    2cd8:	1000                	addi	s0,sp,32
  uint64 a = (uint64) sbrk(8192);
    2cda:	6509                	lui	a0,0x2
    2cdc:	00004097          	auipc	ra,0x4
    2ce0:	b72080e7          	jalr	-1166(ra) # 684e <sbrk>
  if(a == 0xffffffffffffffffLL) {
    2ce4:	57fd                	li	a5,-1
    2ce6:	06f50763          	beq	a0,a5,2d54 <rwsbrk+0x86>
    2cea:	84aa                	mv	s1,a0
  if ((uint64) sbrk(-8192) ==  0xffffffffffffffffLL) {
    2cec:	7579                	lui	a0,0xffffe
    2cee:	00004097          	auipc	ra,0x4
    2cf2:	b60080e7          	jalr	-1184(ra) # 684e <sbrk>
    2cf6:	57fd                	li	a5,-1
    2cf8:	06f50f63          	beq	a0,a5,2d76 <rwsbrk+0xa8>
  fd = open("rwsbrk", O_CREATE|O_WRONLY);
    2cfc:	20100593          	li	a1,513
    2d00:	00005517          	auipc	a0,0x5
    2d04:	d9850513          	addi	a0,a0,-616 # 7a98 <malloc+0xe7c>
    2d08:	00004097          	auipc	ra,0x4
    2d0c:	afe080e7          	jalr	-1282(ra) # 6806 <open>
    2d10:	892a                	mv	s2,a0
  if(fd < 0){
    2d12:	08054363          	bltz	a0,2d98 <rwsbrk+0xca>
  n = write(fd, (void*)(a+4096), 1024);
    2d16:	6505                	lui	a0,0x1
    2d18:	94aa                	add	s1,s1,a0
    2d1a:	40000613          	li	a2,1024
    2d1e:	85a6                	mv	a1,s1
    2d20:	854a                	mv	a0,s2
    2d22:	00004097          	auipc	ra,0x4
    2d26:	ac4080e7          	jalr	-1340(ra) # 67e6 <write>
    2d2a:	862a                	mv	a2,a0
  if(n >= 0){
    2d2c:	08054763          	bltz	a0,2dba <rwsbrk+0xec>
    printf("write(fd, %p, 1024) returned %d, not -1\n", a+4096, n);
    2d30:	85a6                	mv	a1,s1
    2d32:	00005517          	auipc	a0,0x5
    2d36:	d8650513          	addi	a0,a0,-634 # 7ab8 <malloc+0xe9c>
    2d3a:	00004097          	auipc	ra,0x4
    2d3e:	e24080e7          	jalr	-476(ra) # 6b5e <printf>
    exit(1,"");
    2d42:	00005597          	auipc	a1,0x5
    2d46:	60658593          	addi	a1,a1,1542 # 8348 <malloc+0x172c>
    2d4a:	4505                	li	a0,1
    2d4c:	00004097          	auipc	ra,0x4
    2d50:	a7a080e7          	jalr	-1414(ra) # 67c6 <exit>
    printf("sbrk(rwsbrk) failed\n");
    2d54:	00005517          	auipc	a0,0x5
    2d58:	d0c50513          	addi	a0,a0,-756 # 7a60 <malloc+0xe44>
    2d5c:	00004097          	auipc	ra,0x4
    2d60:	e02080e7          	jalr	-510(ra) # 6b5e <printf>
    exit(1,"");
    2d64:	00005597          	auipc	a1,0x5
    2d68:	5e458593          	addi	a1,a1,1508 # 8348 <malloc+0x172c>
    2d6c:	4505                	li	a0,1
    2d6e:	00004097          	auipc	ra,0x4
    2d72:	a58080e7          	jalr	-1448(ra) # 67c6 <exit>
    printf("sbrk(rwsbrk) shrink failed\n");
    2d76:	00005517          	auipc	a0,0x5
    2d7a:	d0250513          	addi	a0,a0,-766 # 7a78 <malloc+0xe5c>
    2d7e:	00004097          	auipc	ra,0x4
    2d82:	de0080e7          	jalr	-544(ra) # 6b5e <printf>
    exit(1,"");
    2d86:	00005597          	auipc	a1,0x5
    2d8a:	5c258593          	addi	a1,a1,1474 # 8348 <malloc+0x172c>
    2d8e:	4505                	li	a0,1
    2d90:	00004097          	auipc	ra,0x4
    2d94:	a36080e7          	jalr	-1482(ra) # 67c6 <exit>
    printf("open(rwsbrk) failed\n");
    2d98:	00005517          	auipc	a0,0x5
    2d9c:	d0850513          	addi	a0,a0,-760 # 7aa0 <malloc+0xe84>
    2da0:	00004097          	auipc	ra,0x4
    2da4:	dbe080e7          	jalr	-578(ra) # 6b5e <printf>
    exit(1,"");
    2da8:	00005597          	auipc	a1,0x5
    2dac:	5a058593          	addi	a1,a1,1440 # 8348 <malloc+0x172c>
    2db0:	4505                	li	a0,1
    2db2:	00004097          	auipc	ra,0x4
    2db6:	a14080e7          	jalr	-1516(ra) # 67c6 <exit>
  close(fd);
    2dba:	854a                	mv	a0,s2
    2dbc:	00004097          	auipc	ra,0x4
    2dc0:	a32080e7          	jalr	-1486(ra) # 67ee <close>
  unlink("rwsbrk");
    2dc4:	00005517          	auipc	a0,0x5
    2dc8:	cd450513          	addi	a0,a0,-812 # 7a98 <malloc+0xe7c>
    2dcc:	00004097          	auipc	ra,0x4
    2dd0:	a4a080e7          	jalr	-1462(ra) # 6816 <unlink>
  fd = open("README", O_RDONLY);
    2dd4:	4581                	li	a1,0
    2dd6:	00004517          	auipc	a0,0x4
    2dda:	15a50513          	addi	a0,a0,346 # 6f30 <malloc+0x314>
    2dde:	00004097          	auipc	ra,0x4
    2de2:	a28080e7          	jalr	-1496(ra) # 6806 <open>
    2de6:	892a                	mv	s2,a0
  if(fd < 0){
    2de8:	02054d63          	bltz	a0,2e22 <rwsbrk+0x154>
  n = read(fd, (void*)(a+4096), 10);
    2dec:	4629                	li	a2,10
    2dee:	85a6                	mv	a1,s1
    2df0:	00004097          	auipc	ra,0x4
    2df4:	9ee080e7          	jalr	-1554(ra) # 67de <read>
    2df8:	862a                	mv	a2,a0
  if(n >= 0){
    2dfa:	04054563          	bltz	a0,2e44 <rwsbrk+0x176>
    printf("read(fd, %p, 10) returned %d, not -1\n", a+4096, n);
    2dfe:	85a6                	mv	a1,s1
    2e00:	00005517          	auipc	a0,0x5
    2e04:	ce850513          	addi	a0,a0,-792 # 7ae8 <malloc+0xecc>
    2e08:	00004097          	auipc	ra,0x4
    2e0c:	d56080e7          	jalr	-682(ra) # 6b5e <printf>
    exit(1,"");
    2e10:	00005597          	auipc	a1,0x5
    2e14:	53858593          	addi	a1,a1,1336 # 8348 <malloc+0x172c>
    2e18:	4505                	li	a0,1
    2e1a:	00004097          	auipc	ra,0x4
    2e1e:	9ac080e7          	jalr	-1620(ra) # 67c6 <exit>
    printf("open(rwsbrk) failed\n");
    2e22:	00005517          	auipc	a0,0x5
    2e26:	c7e50513          	addi	a0,a0,-898 # 7aa0 <malloc+0xe84>
    2e2a:	00004097          	auipc	ra,0x4
    2e2e:	d34080e7          	jalr	-716(ra) # 6b5e <printf>
    exit(1,"");
    2e32:	00005597          	auipc	a1,0x5
    2e36:	51658593          	addi	a1,a1,1302 # 8348 <malloc+0x172c>
    2e3a:	4505                	li	a0,1
    2e3c:	00004097          	auipc	ra,0x4
    2e40:	98a080e7          	jalr	-1654(ra) # 67c6 <exit>
  close(fd);
    2e44:	854a                	mv	a0,s2
    2e46:	00004097          	auipc	ra,0x4
    2e4a:	9a8080e7          	jalr	-1624(ra) # 67ee <close>
  exit(0,"");
    2e4e:	00005597          	auipc	a1,0x5
    2e52:	4fa58593          	addi	a1,a1,1274 # 8348 <malloc+0x172c>
    2e56:	4501                	li	a0,0
    2e58:	00004097          	auipc	ra,0x4
    2e5c:	96e080e7          	jalr	-1682(ra) # 67c6 <exit>

0000000000002e60 <sbrkbasic>:
{
    2e60:	7139                	addi	sp,sp,-64
    2e62:	fc06                	sd	ra,56(sp)
    2e64:	f822                	sd	s0,48(sp)
    2e66:	f426                	sd	s1,40(sp)
    2e68:	f04a                	sd	s2,32(sp)
    2e6a:	ec4e                	sd	s3,24(sp)
    2e6c:	e852                	sd	s4,16(sp)
    2e6e:	0080                	addi	s0,sp,64
    2e70:	8a2a                	mv	s4,a0
  pid = fork();
    2e72:	00004097          	auipc	ra,0x4
    2e76:	94c080e7          	jalr	-1716(ra) # 67be <fork>
  if(pid < 0){
    2e7a:	04054063          	bltz	a0,2eba <sbrkbasic+0x5a>
  if(pid == 0){
    2e7e:	e925                	bnez	a0,2eee <sbrkbasic+0x8e>
    a = sbrk(TOOMUCH);
    2e80:	40000537          	lui	a0,0x40000
    2e84:	00004097          	auipc	ra,0x4
    2e88:	9ca080e7          	jalr	-1590(ra) # 684e <sbrk>
    if(a == (char*)0xffffffffffffffffL){
    2e8c:	57fd                	li	a5,-1
    2e8e:	04f50763          	beq	a0,a5,2edc <sbrkbasic+0x7c>
    for(b = a; b < a+TOOMUCH; b += 4096){
    2e92:	400007b7          	lui	a5,0x40000
    2e96:	97aa                	add	a5,a5,a0
      *b = 99;
    2e98:	06300693          	li	a3,99
    for(b = a; b < a+TOOMUCH; b += 4096){
    2e9c:	6705                	lui	a4,0x1
      *b = 99;
    2e9e:	00d50023          	sb	a3,0(a0) # 40000000 <base+0x3ffef388>
    for(b = a; b < a+TOOMUCH; b += 4096){
    2ea2:	953a                	add	a0,a0,a4
    2ea4:	fef51de3          	bne	a0,a5,2e9e <sbrkbasic+0x3e>
    exit(1,"");
    2ea8:	00005597          	auipc	a1,0x5
    2eac:	4a058593          	addi	a1,a1,1184 # 8348 <malloc+0x172c>
    2eb0:	4505                	li	a0,1
    2eb2:	00004097          	auipc	ra,0x4
    2eb6:	914080e7          	jalr	-1772(ra) # 67c6 <exit>
    printf("fork failed in sbrkbasic\n");
    2eba:	00005517          	auipc	a0,0x5
    2ebe:	c5650513          	addi	a0,a0,-938 # 7b10 <malloc+0xef4>
    2ec2:	00004097          	auipc	ra,0x4
    2ec6:	c9c080e7          	jalr	-868(ra) # 6b5e <printf>
    exit(1,"");
    2eca:	00005597          	auipc	a1,0x5
    2ece:	47e58593          	addi	a1,a1,1150 # 8348 <malloc+0x172c>
    2ed2:	4505                	li	a0,1
    2ed4:	00004097          	auipc	ra,0x4
    2ed8:	8f2080e7          	jalr	-1806(ra) # 67c6 <exit>
      exit(0,"");
    2edc:	00005597          	auipc	a1,0x5
    2ee0:	46c58593          	addi	a1,a1,1132 # 8348 <malloc+0x172c>
    2ee4:	4501                	li	a0,0
    2ee6:	00004097          	auipc	ra,0x4
    2eea:	8e0080e7          	jalr	-1824(ra) # 67c6 <exit>
  wait(&xstatus,"");
    2eee:	00005597          	auipc	a1,0x5
    2ef2:	45a58593          	addi	a1,a1,1114 # 8348 <malloc+0x172c>
    2ef6:	fcc40513          	addi	a0,s0,-52
    2efa:	00004097          	auipc	ra,0x4
    2efe:	8d4080e7          	jalr	-1836(ra) # 67ce <wait>
  if(xstatus == 1){
    2f02:	fcc42703          	lw	a4,-52(s0)
    2f06:	4785                	li	a5,1
    2f08:	00f70d63          	beq	a4,a5,2f22 <sbrkbasic+0xc2>
  a = sbrk(0);
    2f0c:	4501                	li	a0,0
    2f0e:	00004097          	auipc	ra,0x4
    2f12:	940080e7          	jalr	-1728(ra) # 684e <sbrk>
    2f16:	84aa                	mv	s1,a0
  for(i = 0; i < 5000; i++){
    2f18:	4901                	li	s2,0
    2f1a:	6985                	lui	s3,0x1
    2f1c:	38898993          	addi	s3,s3,904 # 1388 <bigdir+0x20>
    2f20:	a025                	j	2f48 <sbrkbasic+0xe8>
    printf("%s: too much memory allocated!\n", s);
    2f22:	85d2                	mv	a1,s4
    2f24:	00005517          	auipc	a0,0x5
    2f28:	c0c50513          	addi	a0,a0,-1012 # 7b30 <malloc+0xf14>
    2f2c:	00004097          	auipc	ra,0x4
    2f30:	c32080e7          	jalr	-974(ra) # 6b5e <printf>
    exit(1,"");
    2f34:	00005597          	auipc	a1,0x5
    2f38:	41458593          	addi	a1,a1,1044 # 8348 <malloc+0x172c>
    2f3c:	4505                	li	a0,1
    2f3e:	00004097          	auipc	ra,0x4
    2f42:	888080e7          	jalr	-1912(ra) # 67c6 <exit>
    a = b + 1;
    2f46:	84be                	mv	s1,a5
    b = sbrk(1);
    2f48:	4505                	li	a0,1
    2f4a:	00004097          	auipc	ra,0x4
    2f4e:	904080e7          	jalr	-1788(ra) # 684e <sbrk>
    if(b != a){
    2f52:	06951063          	bne	a0,s1,2fb2 <sbrkbasic+0x152>
    *b = 1;
    2f56:	4785                	li	a5,1
    2f58:	00f48023          	sb	a5,0(s1)
    a = b + 1;
    2f5c:	00148793          	addi	a5,s1,1
  for(i = 0; i < 5000; i++){
    2f60:	2905                	addiw	s2,s2,1
    2f62:	ff3912e3          	bne	s2,s3,2f46 <sbrkbasic+0xe6>
  pid = fork();
    2f66:	00004097          	auipc	ra,0x4
    2f6a:	858080e7          	jalr	-1960(ra) # 67be <fork>
    2f6e:	892a                	mv	s2,a0
  if(pid < 0){
    2f70:	06054663          	bltz	a0,2fdc <sbrkbasic+0x17c>
  c = sbrk(1);
    2f74:	4505                	li	a0,1
    2f76:	00004097          	auipc	ra,0x4
    2f7a:	8d8080e7          	jalr	-1832(ra) # 684e <sbrk>
  c = sbrk(1);
    2f7e:	4505                	li	a0,1
    2f80:	00004097          	auipc	ra,0x4
    2f84:	8ce080e7          	jalr	-1842(ra) # 684e <sbrk>
  if(c != a + 1){
    2f88:	0489                	addi	s1,s1,2
    2f8a:	06a48b63          	beq	s1,a0,3000 <sbrkbasic+0x1a0>
    printf("%s: sbrk test failed post-fork\n", s);
    2f8e:	85d2                	mv	a1,s4
    2f90:	00005517          	auipc	a0,0x5
    2f94:	c0050513          	addi	a0,a0,-1024 # 7b90 <malloc+0xf74>
    2f98:	00004097          	auipc	ra,0x4
    2f9c:	bc6080e7          	jalr	-1082(ra) # 6b5e <printf>
    exit(1,"");
    2fa0:	00005597          	auipc	a1,0x5
    2fa4:	3a858593          	addi	a1,a1,936 # 8348 <malloc+0x172c>
    2fa8:	4505                	li	a0,1
    2faa:	00004097          	auipc	ra,0x4
    2fae:	81c080e7          	jalr	-2020(ra) # 67c6 <exit>
      printf("%s: sbrk test failed %d %x %x\n", s, i, a, b);
    2fb2:	872a                	mv	a4,a0
    2fb4:	86a6                	mv	a3,s1
    2fb6:	864a                	mv	a2,s2
    2fb8:	85d2                	mv	a1,s4
    2fba:	00005517          	auipc	a0,0x5
    2fbe:	b9650513          	addi	a0,a0,-1130 # 7b50 <malloc+0xf34>
    2fc2:	00004097          	auipc	ra,0x4
    2fc6:	b9c080e7          	jalr	-1124(ra) # 6b5e <printf>
      exit(1,"");
    2fca:	00005597          	auipc	a1,0x5
    2fce:	37e58593          	addi	a1,a1,894 # 8348 <malloc+0x172c>
    2fd2:	4505                	li	a0,1
    2fd4:	00003097          	auipc	ra,0x3
    2fd8:	7f2080e7          	jalr	2034(ra) # 67c6 <exit>
    printf("%s: sbrk test fork failed\n", s);
    2fdc:	85d2                	mv	a1,s4
    2fde:	00005517          	auipc	a0,0x5
    2fe2:	b9250513          	addi	a0,a0,-1134 # 7b70 <malloc+0xf54>
    2fe6:	00004097          	auipc	ra,0x4
    2fea:	b78080e7          	jalr	-1160(ra) # 6b5e <printf>
    exit(1,"");
    2fee:	00005597          	auipc	a1,0x5
    2ff2:	35a58593          	addi	a1,a1,858 # 8348 <malloc+0x172c>
    2ff6:	4505                	li	a0,1
    2ff8:	00003097          	auipc	ra,0x3
    2ffc:	7ce080e7          	jalr	1998(ra) # 67c6 <exit>
  if(pid == 0)
    3000:	00091b63          	bnez	s2,3016 <sbrkbasic+0x1b6>
    exit(0,"");
    3004:	00005597          	auipc	a1,0x5
    3008:	34458593          	addi	a1,a1,836 # 8348 <malloc+0x172c>
    300c:	4501                	li	a0,0
    300e:	00003097          	auipc	ra,0x3
    3012:	7b8080e7          	jalr	1976(ra) # 67c6 <exit>
  wait(&xstatus,"");
    3016:	00005597          	auipc	a1,0x5
    301a:	33258593          	addi	a1,a1,818 # 8348 <malloc+0x172c>
    301e:	fcc40513          	addi	a0,s0,-52
    3022:	00003097          	auipc	ra,0x3
    3026:	7ac080e7          	jalr	1964(ra) # 67ce <wait>
  exit(xstatus,"");
    302a:	00005597          	auipc	a1,0x5
    302e:	31e58593          	addi	a1,a1,798 # 8348 <malloc+0x172c>
    3032:	fcc42503          	lw	a0,-52(s0)
    3036:	00003097          	auipc	ra,0x3
    303a:	790080e7          	jalr	1936(ra) # 67c6 <exit>

000000000000303e <sbrkmuch>:
{
    303e:	7179                	addi	sp,sp,-48
    3040:	f406                	sd	ra,40(sp)
    3042:	f022                	sd	s0,32(sp)
    3044:	ec26                	sd	s1,24(sp)
    3046:	e84a                	sd	s2,16(sp)
    3048:	e44e                	sd	s3,8(sp)
    304a:	e052                	sd	s4,0(sp)
    304c:	1800                	addi	s0,sp,48
    304e:	89aa                	mv	s3,a0
  oldbrk = sbrk(0);
    3050:	4501                	li	a0,0
    3052:	00003097          	auipc	ra,0x3
    3056:	7fc080e7          	jalr	2044(ra) # 684e <sbrk>
    305a:	892a                	mv	s2,a0
  a = sbrk(0);
    305c:	4501                	li	a0,0
    305e:	00003097          	auipc	ra,0x3
    3062:	7f0080e7          	jalr	2032(ra) # 684e <sbrk>
    3066:	84aa                	mv	s1,a0
  p = sbrk(amt);
    3068:	06400537          	lui	a0,0x6400
    306c:	9d05                	subw	a0,a0,s1
    306e:	00003097          	auipc	ra,0x3
    3072:	7e0080e7          	jalr	2016(ra) # 684e <sbrk>
  if (p != a) {
    3076:	0ca49863          	bne	s1,a0,3146 <sbrkmuch+0x108>
  char *eee = sbrk(0);
    307a:	4501                	li	a0,0
    307c:	00003097          	auipc	ra,0x3
    3080:	7d2080e7          	jalr	2002(ra) # 684e <sbrk>
    3084:	87aa                	mv	a5,a0
  for(char *pp = a; pp < eee; pp += 4096)
    3086:	00a4f963          	bgeu	s1,a0,3098 <sbrkmuch+0x5a>
    *pp = 1;
    308a:	4685                	li	a3,1
  for(char *pp = a; pp < eee; pp += 4096)
    308c:	6705                	lui	a4,0x1
    *pp = 1;
    308e:	00d48023          	sb	a3,0(s1)
  for(char *pp = a; pp < eee; pp += 4096)
    3092:	94ba                	add	s1,s1,a4
    3094:	fef4ede3          	bltu	s1,a5,308e <sbrkmuch+0x50>
  *lastaddr = 99;
    3098:	064007b7          	lui	a5,0x6400
    309c:	06300713          	li	a4,99
    30a0:	fee78fa3          	sb	a4,-1(a5) # 63fffff <base+0x63ef387>
  a = sbrk(0);
    30a4:	4501                	li	a0,0
    30a6:	00003097          	auipc	ra,0x3
    30aa:	7a8080e7          	jalr	1960(ra) # 684e <sbrk>
    30ae:	84aa                	mv	s1,a0
  c = sbrk(-PGSIZE);
    30b0:	757d                	lui	a0,0xfffff
    30b2:	00003097          	auipc	ra,0x3
    30b6:	79c080e7          	jalr	1948(ra) # 684e <sbrk>
  if(c == (char*)0xffffffffffffffffL){
    30ba:	57fd                	li	a5,-1
    30bc:	0af50763          	beq	a0,a5,316a <sbrkmuch+0x12c>
  c = sbrk(0);
    30c0:	4501                	li	a0,0
    30c2:	00003097          	auipc	ra,0x3
    30c6:	78c080e7          	jalr	1932(ra) # 684e <sbrk>
  if(c != a - PGSIZE){
    30ca:	77fd                	lui	a5,0xfffff
    30cc:	97a6                	add	a5,a5,s1
    30ce:	0cf51063          	bne	a0,a5,318e <sbrkmuch+0x150>
  a = sbrk(0);
    30d2:	4501                	li	a0,0
    30d4:	00003097          	auipc	ra,0x3
    30d8:	77a080e7          	jalr	1914(ra) # 684e <sbrk>
    30dc:	84aa                	mv	s1,a0
  c = sbrk(PGSIZE);
    30de:	6505                	lui	a0,0x1
    30e0:	00003097          	auipc	ra,0x3
    30e4:	76e080e7          	jalr	1902(ra) # 684e <sbrk>
    30e8:	8a2a                	mv	s4,a0
  if(c != a || sbrk(0) != a + PGSIZE){
    30ea:	0ca49663          	bne	s1,a0,31b6 <sbrkmuch+0x178>
    30ee:	4501                	li	a0,0
    30f0:	00003097          	auipc	ra,0x3
    30f4:	75e080e7          	jalr	1886(ra) # 684e <sbrk>
    30f8:	6785                	lui	a5,0x1
    30fa:	97a6                	add	a5,a5,s1
    30fc:	0af51d63          	bne	a0,a5,31b6 <sbrkmuch+0x178>
  if(*lastaddr == 99){
    3100:	064007b7          	lui	a5,0x6400
    3104:	fff7c703          	lbu	a4,-1(a5) # 63fffff <base+0x63ef387>
    3108:	06300793          	li	a5,99
    310c:	0cf70963          	beq	a4,a5,31de <sbrkmuch+0x1a0>
  a = sbrk(0);
    3110:	4501                	li	a0,0
    3112:	00003097          	auipc	ra,0x3
    3116:	73c080e7          	jalr	1852(ra) # 684e <sbrk>
    311a:	84aa                	mv	s1,a0
  c = sbrk(-(sbrk(0) - oldbrk));
    311c:	4501                	li	a0,0
    311e:	00003097          	auipc	ra,0x3
    3122:	730080e7          	jalr	1840(ra) # 684e <sbrk>
    3126:	40a9053b          	subw	a0,s2,a0
    312a:	00003097          	auipc	ra,0x3
    312e:	724080e7          	jalr	1828(ra) # 684e <sbrk>
  if(c != a){
    3132:	0ca49863          	bne	s1,a0,3202 <sbrkmuch+0x1c4>
}
    3136:	70a2                	ld	ra,40(sp)
    3138:	7402                	ld	s0,32(sp)
    313a:	64e2                	ld	s1,24(sp)
    313c:	6942                	ld	s2,16(sp)
    313e:	69a2                	ld	s3,8(sp)
    3140:	6a02                	ld	s4,0(sp)
    3142:	6145                	addi	sp,sp,48
    3144:	8082                	ret
    printf("%s: sbrk test failed to grow big address space; enough phys mem?\n", s);
    3146:	85ce                	mv	a1,s3
    3148:	00005517          	auipc	a0,0x5
    314c:	a6850513          	addi	a0,a0,-1432 # 7bb0 <malloc+0xf94>
    3150:	00004097          	auipc	ra,0x4
    3154:	a0e080e7          	jalr	-1522(ra) # 6b5e <printf>
    exit(1,"");
    3158:	00005597          	auipc	a1,0x5
    315c:	1f058593          	addi	a1,a1,496 # 8348 <malloc+0x172c>
    3160:	4505                	li	a0,1
    3162:	00003097          	auipc	ra,0x3
    3166:	664080e7          	jalr	1636(ra) # 67c6 <exit>
    printf("%s: sbrk could not deallocate\n", s);
    316a:	85ce                	mv	a1,s3
    316c:	00005517          	auipc	a0,0x5
    3170:	a8c50513          	addi	a0,a0,-1396 # 7bf8 <malloc+0xfdc>
    3174:	00004097          	auipc	ra,0x4
    3178:	9ea080e7          	jalr	-1558(ra) # 6b5e <printf>
    exit(1,"");
    317c:	00005597          	auipc	a1,0x5
    3180:	1cc58593          	addi	a1,a1,460 # 8348 <malloc+0x172c>
    3184:	4505                	li	a0,1
    3186:	00003097          	auipc	ra,0x3
    318a:	640080e7          	jalr	1600(ra) # 67c6 <exit>
    printf("%s: sbrk deallocation produced wrong address, a %x c %x\n", s, a, c);
    318e:	86aa                	mv	a3,a0
    3190:	8626                	mv	a2,s1
    3192:	85ce                	mv	a1,s3
    3194:	00005517          	auipc	a0,0x5
    3198:	a8450513          	addi	a0,a0,-1404 # 7c18 <malloc+0xffc>
    319c:	00004097          	auipc	ra,0x4
    31a0:	9c2080e7          	jalr	-1598(ra) # 6b5e <printf>
    exit(1,"");
    31a4:	00005597          	auipc	a1,0x5
    31a8:	1a458593          	addi	a1,a1,420 # 8348 <malloc+0x172c>
    31ac:	4505                	li	a0,1
    31ae:	00003097          	auipc	ra,0x3
    31b2:	618080e7          	jalr	1560(ra) # 67c6 <exit>
    printf("%s: sbrk re-allocation failed, a %x c %x\n", s, a, c);
    31b6:	86d2                	mv	a3,s4
    31b8:	8626                	mv	a2,s1
    31ba:	85ce                	mv	a1,s3
    31bc:	00005517          	auipc	a0,0x5
    31c0:	a9c50513          	addi	a0,a0,-1380 # 7c58 <malloc+0x103c>
    31c4:	00004097          	auipc	ra,0x4
    31c8:	99a080e7          	jalr	-1638(ra) # 6b5e <printf>
    exit(1,"");
    31cc:	00005597          	auipc	a1,0x5
    31d0:	17c58593          	addi	a1,a1,380 # 8348 <malloc+0x172c>
    31d4:	4505                	li	a0,1
    31d6:	00003097          	auipc	ra,0x3
    31da:	5f0080e7          	jalr	1520(ra) # 67c6 <exit>
    printf("%s: sbrk de-allocation didn't really deallocate\n", s);
    31de:	85ce                	mv	a1,s3
    31e0:	00005517          	auipc	a0,0x5
    31e4:	aa850513          	addi	a0,a0,-1368 # 7c88 <malloc+0x106c>
    31e8:	00004097          	auipc	ra,0x4
    31ec:	976080e7          	jalr	-1674(ra) # 6b5e <printf>
    exit(1,"");
    31f0:	00005597          	auipc	a1,0x5
    31f4:	15858593          	addi	a1,a1,344 # 8348 <malloc+0x172c>
    31f8:	4505                	li	a0,1
    31fa:	00003097          	auipc	ra,0x3
    31fe:	5cc080e7          	jalr	1484(ra) # 67c6 <exit>
    printf("%s: sbrk downsize failed, a %x c %x\n", s, a, c);
    3202:	86aa                	mv	a3,a0
    3204:	8626                	mv	a2,s1
    3206:	85ce                	mv	a1,s3
    3208:	00005517          	auipc	a0,0x5
    320c:	ab850513          	addi	a0,a0,-1352 # 7cc0 <malloc+0x10a4>
    3210:	00004097          	auipc	ra,0x4
    3214:	94e080e7          	jalr	-1714(ra) # 6b5e <printf>
    exit(1,"");
    3218:	00005597          	auipc	a1,0x5
    321c:	13058593          	addi	a1,a1,304 # 8348 <malloc+0x172c>
    3220:	4505                	li	a0,1
    3222:	00003097          	auipc	ra,0x3
    3226:	5a4080e7          	jalr	1444(ra) # 67c6 <exit>

000000000000322a <sbrkarg>:
{
    322a:	7179                	addi	sp,sp,-48
    322c:	f406                	sd	ra,40(sp)
    322e:	f022                	sd	s0,32(sp)
    3230:	ec26                	sd	s1,24(sp)
    3232:	e84a                	sd	s2,16(sp)
    3234:	e44e                	sd	s3,8(sp)
    3236:	1800                	addi	s0,sp,48
    3238:	89aa                	mv	s3,a0
  a = sbrk(PGSIZE);
    323a:	6505                	lui	a0,0x1
    323c:	00003097          	auipc	ra,0x3
    3240:	612080e7          	jalr	1554(ra) # 684e <sbrk>
    3244:	892a                	mv	s2,a0
  fd = open("sbrk", O_CREATE|O_WRONLY);
    3246:	20100593          	li	a1,513
    324a:	00005517          	auipc	a0,0x5
    324e:	a9e50513          	addi	a0,a0,-1378 # 7ce8 <malloc+0x10cc>
    3252:	00003097          	auipc	ra,0x3
    3256:	5b4080e7          	jalr	1460(ra) # 6806 <open>
    325a:	84aa                	mv	s1,a0
  unlink("sbrk");
    325c:	00005517          	auipc	a0,0x5
    3260:	a8c50513          	addi	a0,a0,-1396 # 7ce8 <malloc+0x10cc>
    3264:	00003097          	auipc	ra,0x3
    3268:	5b2080e7          	jalr	1458(ra) # 6816 <unlink>
  if(fd < 0)  {
    326c:	0404c163          	bltz	s1,32ae <sbrkarg+0x84>
  if ((n = write(fd, a, PGSIZE)) < 0) {
    3270:	6605                	lui	a2,0x1
    3272:	85ca                	mv	a1,s2
    3274:	8526                	mv	a0,s1
    3276:	00003097          	auipc	ra,0x3
    327a:	570080e7          	jalr	1392(ra) # 67e6 <write>
    327e:	04054a63          	bltz	a0,32d2 <sbrkarg+0xa8>
  close(fd);
    3282:	8526                	mv	a0,s1
    3284:	00003097          	auipc	ra,0x3
    3288:	56a080e7          	jalr	1386(ra) # 67ee <close>
  a = sbrk(PGSIZE);
    328c:	6505                	lui	a0,0x1
    328e:	00003097          	auipc	ra,0x3
    3292:	5c0080e7          	jalr	1472(ra) # 684e <sbrk>
  if(pipe((int *) a) != 0){
    3296:	00003097          	auipc	ra,0x3
    329a:	540080e7          	jalr	1344(ra) # 67d6 <pipe>
    329e:	ed21                	bnez	a0,32f6 <sbrkarg+0xcc>
}
    32a0:	70a2                	ld	ra,40(sp)
    32a2:	7402                	ld	s0,32(sp)
    32a4:	64e2                	ld	s1,24(sp)
    32a6:	6942                	ld	s2,16(sp)
    32a8:	69a2                	ld	s3,8(sp)
    32aa:	6145                	addi	sp,sp,48
    32ac:	8082                	ret
    printf("%s: open sbrk failed\n", s);
    32ae:	85ce                	mv	a1,s3
    32b0:	00005517          	auipc	a0,0x5
    32b4:	a4050513          	addi	a0,a0,-1472 # 7cf0 <malloc+0x10d4>
    32b8:	00004097          	auipc	ra,0x4
    32bc:	8a6080e7          	jalr	-1882(ra) # 6b5e <printf>
    exit(1,"");
    32c0:	00005597          	auipc	a1,0x5
    32c4:	08858593          	addi	a1,a1,136 # 8348 <malloc+0x172c>
    32c8:	4505                	li	a0,1
    32ca:	00003097          	auipc	ra,0x3
    32ce:	4fc080e7          	jalr	1276(ra) # 67c6 <exit>
    printf("%s: write sbrk failed\n", s);
    32d2:	85ce                	mv	a1,s3
    32d4:	00005517          	auipc	a0,0x5
    32d8:	a3450513          	addi	a0,a0,-1484 # 7d08 <malloc+0x10ec>
    32dc:	00004097          	auipc	ra,0x4
    32e0:	882080e7          	jalr	-1918(ra) # 6b5e <printf>
    exit(1,"");
    32e4:	00005597          	auipc	a1,0x5
    32e8:	06458593          	addi	a1,a1,100 # 8348 <malloc+0x172c>
    32ec:	4505                	li	a0,1
    32ee:	00003097          	auipc	ra,0x3
    32f2:	4d8080e7          	jalr	1240(ra) # 67c6 <exit>
    printf("%s: pipe() failed\n", s);
    32f6:	85ce                	mv	a1,s3
    32f8:	00004517          	auipc	a0,0x4
    32fc:	3f050513          	addi	a0,a0,1008 # 76e8 <malloc+0xacc>
    3300:	00004097          	auipc	ra,0x4
    3304:	85e080e7          	jalr	-1954(ra) # 6b5e <printf>
    exit(1,"");
    3308:	00005597          	auipc	a1,0x5
    330c:	04058593          	addi	a1,a1,64 # 8348 <malloc+0x172c>
    3310:	4505                	li	a0,1
    3312:	00003097          	auipc	ra,0x3
    3316:	4b4080e7          	jalr	1204(ra) # 67c6 <exit>

000000000000331a <argptest>:
{
    331a:	1101                	addi	sp,sp,-32
    331c:	ec06                	sd	ra,24(sp)
    331e:	e822                	sd	s0,16(sp)
    3320:	e426                	sd	s1,8(sp)
    3322:	e04a                	sd	s2,0(sp)
    3324:	1000                	addi	s0,sp,32
    3326:	892a                	mv	s2,a0
  fd = open("init", O_RDONLY);
    3328:	4581                	li	a1,0
    332a:	00005517          	auipc	a0,0x5
    332e:	9f650513          	addi	a0,a0,-1546 # 7d20 <malloc+0x1104>
    3332:	00003097          	auipc	ra,0x3
    3336:	4d4080e7          	jalr	1236(ra) # 6806 <open>
  if (fd < 0) {
    333a:	02054b63          	bltz	a0,3370 <argptest+0x56>
    333e:	84aa                	mv	s1,a0
  read(fd, sbrk(0) - 1, -1);
    3340:	4501                	li	a0,0
    3342:	00003097          	auipc	ra,0x3
    3346:	50c080e7          	jalr	1292(ra) # 684e <sbrk>
    334a:	567d                	li	a2,-1
    334c:	fff50593          	addi	a1,a0,-1
    3350:	8526                	mv	a0,s1
    3352:	00003097          	auipc	ra,0x3
    3356:	48c080e7          	jalr	1164(ra) # 67de <read>
  close(fd);
    335a:	8526                	mv	a0,s1
    335c:	00003097          	auipc	ra,0x3
    3360:	492080e7          	jalr	1170(ra) # 67ee <close>
}
    3364:	60e2                	ld	ra,24(sp)
    3366:	6442                	ld	s0,16(sp)
    3368:	64a2                	ld	s1,8(sp)
    336a:	6902                	ld	s2,0(sp)
    336c:	6105                	addi	sp,sp,32
    336e:	8082                	ret
    printf("%s: open failed\n", s);
    3370:	85ca                	mv	a1,s2
    3372:	00004517          	auipc	a0,0x4
    3376:	28650513          	addi	a0,a0,646 # 75f8 <malloc+0x9dc>
    337a:	00003097          	auipc	ra,0x3
    337e:	7e4080e7          	jalr	2020(ra) # 6b5e <printf>
    exit(1,"");
    3382:	00005597          	auipc	a1,0x5
    3386:	fc658593          	addi	a1,a1,-58 # 8348 <malloc+0x172c>
    338a:	4505                	li	a0,1
    338c:	00003097          	auipc	ra,0x3
    3390:	43a080e7          	jalr	1082(ra) # 67c6 <exit>

0000000000003394 <sbrkbugs>:
{
    3394:	1141                	addi	sp,sp,-16
    3396:	e406                	sd	ra,8(sp)
    3398:	e022                	sd	s0,0(sp)
    339a:	0800                	addi	s0,sp,16
  int pid = fork();
    339c:	00003097          	auipc	ra,0x3
    33a0:	422080e7          	jalr	1058(ra) # 67be <fork>
  if(pid < 0){
    33a4:	02054663          	bltz	a0,33d0 <sbrkbugs+0x3c>
  if(pid == 0){
    33a8:	e529                	bnez	a0,33f2 <sbrkbugs+0x5e>
    int sz = (uint64) sbrk(0);
    33aa:	00003097          	auipc	ra,0x3
    33ae:	4a4080e7          	jalr	1188(ra) # 684e <sbrk>
    sbrk(-sz);
    33b2:	40a0053b          	negw	a0,a0
    33b6:	00003097          	auipc	ra,0x3
    33ba:	498080e7          	jalr	1176(ra) # 684e <sbrk>
    exit(0,"");
    33be:	00005597          	auipc	a1,0x5
    33c2:	f8a58593          	addi	a1,a1,-118 # 8348 <malloc+0x172c>
    33c6:	4501                	li	a0,0
    33c8:	00003097          	auipc	ra,0x3
    33cc:	3fe080e7          	jalr	1022(ra) # 67c6 <exit>
    printf("fork failed\n");
    33d0:	00004517          	auipc	a0,0x4
    33d4:	61850513          	addi	a0,a0,1560 # 79e8 <malloc+0xdcc>
    33d8:	00003097          	auipc	ra,0x3
    33dc:	786080e7          	jalr	1926(ra) # 6b5e <printf>
    exit(1,"");
    33e0:	00005597          	auipc	a1,0x5
    33e4:	f6858593          	addi	a1,a1,-152 # 8348 <malloc+0x172c>
    33e8:	4505                	li	a0,1
    33ea:	00003097          	auipc	ra,0x3
    33ee:	3dc080e7          	jalr	988(ra) # 67c6 <exit>
  wait(0,"");
    33f2:	00005597          	auipc	a1,0x5
    33f6:	f5658593          	addi	a1,a1,-170 # 8348 <malloc+0x172c>
    33fa:	4501                	li	a0,0
    33fc:	00003097          	auipc	ra,0x3
    3400:	3d2080e7          	jalr	978(ra) # 67ce <wait>
  pid = fork();
    3404:	00003097          	auipc	ra,0x3
    3408:	3ba080e7          	jalr	954(ra) # 67be <fork>
  if(pid < 0){
    340c:	02054963          	bltz	a0,343e <sbrkbugs+0xaa>
  if(pid == 0){
    3410:	e921                	bnez	a0,3460 <sbrkbugs+0xcc>
    int sz = (uint64) sbrk(0);
    3412:	00003097          	auipc	ra,0x3
    3416:	43c080e7          	jalr	1084(ra) # 684e <sbrk>
    sbrk(-(sz - 3500));
    341a:	6785                	lui	a5,0x1
    341c:	dac7879b          	addiw	a5,a5,-596
    3420:	40a7853b          	subw	a0,a5,a0
    3424:	00003097          	auipc	ra,0x3
    3428:	42a080e7          	jalr	1066(ra) # 684e <sbrk>
    exit(0,"");
    342c:	00005597          	auipc	a1,0x5
    3430:	f1c58593          	addi	a1,a1,-228 # 8348 <malloc+0x172c>
    3434:	4501                	li	a0,0
    3436:	00003097          	auipc	ra,0x3
    343a:	390080e7          	jalr	912(ra) # 67c6 <exit>
    printf("fork failed\n");
    343e:	00004517          	auipc	a0,0x4
    3442:	5aa50513          	addi	a0,a0,1450 # 79e8 <malloc+0xdcc>
    3446:	00003097          	auipc	ra,0x3
    344a:	718080e7          	jalr	1816(ra) # 6b5e <printf>
    exit(1,"");
    344e:	00005597          	auipc	a1,0x5
    3452:	efa58593          	addi	a1,a1,-262 # 8348 <malloc+0x172c>
    3456:	4505                	li	a0,1
    3458:	00003097          	auipc	ra,0x3
    345c:	36e080e7          	jalr	878(ra) # 67c6 <exit>
  wait(0,"");
    3460:	00005597          	auipc	a1,0x5
    3464:	ee858593          	addi	a1,a1,-280 # 8348 <malloc+0x172c>
    3468:	4501                	li	a0,0
    346a:	00003097          	auipc	ra,0x3
    346e:	364080e7          	jalr	868(ra) # 67ce <wait>
  pid = fork();
    3472:	00003097          	auipc	ra,0x3
    3476:	34c080e7          	jalr	844(ra) # 67be <fork>
  if(pid < 0){
    347a:	02054e63          	bltz	a0,34b6 <sbrkbugs+0x122>
  if(pid == 0){
    347e:	ed29                	bnez	a0,34d8 <sbrkbugs+0x144>
    sbrk((10*4096 + 2048) - (uint64)sbrk(0));
    3480:	00003097          	auipc	ra,0x3
    3484:	3ce080e7          	jalr	974(ra) # 684e <sbrk>
    3488:	67ad                	lui	a5,0xb
    348a:	8007879b          	addiw	a5,a5,-2048
    348e:	40a7853b          	subw	a0,a5,a0
    3492:	00003097          	auipc	ra,0x3
    3496:	3bc080e7          	jalr	956(ra) # 684e <sbrk>
    sbrk(-10);
    349a:	5559                	li	a0,-10
    349c:	00003097          	auipc	ra,0x3
    34a0:	3b2080e7          	jalr	946(ra) # 684e <sbrk>
    exit(0,"");
    34a4:	00005597          	auipc	a1,0x5
    34a8:	ea458593          	addi	a1,a1,-348 # 8348 <malloc+0x172c>
    34ac:	4501                	li	a0,0
    34ae:	00003097          	auipc	ra,0x3
    34b2:	318080e7          	jalr	792(ra) # 67c6 <exit>
    printf("fork failed\n");
    34b6:	00004517          	auipc	a0,0x4
    34ba:	53250513          	addi	a0,a0,1330 # 79e8 <malloc+0xdcc>
    34be:	00003097          	auipc	ra,0x3
    34c2:	6a0080e7          	jalr	1696(ra) # 6b5e <printf>
    exit(1,"");
    34c6:	00005597          	auipc	a1,0x5
    34ca:	e8258593          	addi	a1,a1,-382 # 8348 <malloc+0x172c>
    34ce:	4505                	li	a0,1
    34d0:	00003097          	auipc	ra,0x3
    34d4:	2f6080e7          	jalr	758(ra) # 67c6 <exit>
  wait(0,"");
    34d8:	00005597          	auipc	a1,0x5
    34dc:	e7058593          	addi	a1,a1,-400 # 8348 <malloc+0x172c>
    34e0:	4501                	li	a0,0
    34e2:	00003097          	auipc	ra,0x3
    34e6:	2ec080e7          	jalr	748(ra) # 67ce <wait>
  exit(0,"");
    34ea:	00005597          	auipc	a1,0x5
    34ee:	e5e58593          	addi	a1,a1,-418 # 8348 <malloc+0x172c>
    34f2:	4501                	li	a0,0
    34f4:	00003097          	auipc	ra,0x3
    34f8:	2d2080e7          	jalr	722(ra) # 67c6 <exit>

00000000000034fc <sbrklast>:
{
    34fc:	7179                	addi	sp,sp,-48
    34fe:	f406                	sd	ra,40(sp)
    3500:	f022                	sd	s0,32(sp)
    3502:	ec26                	sd	s1,24(sp)
    3504:	e84a                	sd	s2,16(sp)
    3506:	e44e                	sd	s3,8(sp)
    3508:	e052                	sd	s4,0(sp)
    350a:	1800                	addi	s0,sp,48
  uint64 top = (uint64) sbrk(0);
    350c:	4501                	li	a0,0
    350e:	00003097          	auipc	ra,0x3
    3512:	340080e7          	jalr	832(ra) # 684e <sbrk>
  if((top % 4096) != 0)
    3516:	03451793          	slli	a5,a0,0x34
    351a:	ebd9                	bnez	a5,35b0 <sbrklast+0xb4>
  sbrk(4096);
    351c:	6505                	lui	a0,0x1
    351e:	00003097          	auipc	ra,0x3
    3522:	330080e7          	jalr	816(ra) # 684e <sbrk>
  sbrk(10);
    3526:	4529                	li	a0,10
    3528:	00003097          	auipc	ra,0x3
    352c:	326080e7          	jalr	806(ra) # 684e <sbrk>
  sbrk(-20);
    3530:	5531                	li	a0,-20
    3532:	00003097          	auipc	ra,0x3
    3536:	31c080e7          	jalr	796(ra) # 684e <sbrk>
  top = (uint64) sbrk(0);
    353a:	4501                	li	a0,0
    353c:	00003097          	auipc	ra,0x3
    3540:	312080e7          	jalr	786(ra) # 684e <sbrk>
    3544:	84aa                	mv	s1,a0
  char *p = (char *) (top - 64);
    3546:	fc050913          	addi	s2,a0,-64 # fc0 <unlinkread+0x148>
  p[0] = 'x';
    354a:	07800a13          	li	s4,120
    354e:	fd450023          	sb	s4,-64(a0)
  p[1] = '\0';
    3552:	fc0500a3          	sb	zero,-63(a0)
  int fd = open(p, O_RDWR|O_CREATE);
    3556:	20200593          	li	a1,514
    355a:	854a                	mv	a0,s2
    355c:	00003097          	auipc	ra,0x3
    3560:	2aa080e7          	jalr	682(ra) # 6806 <open>
    3564:	89aa                	mv	s3,a0
  write(fd, p, 1);
    3566:	4605                	li	a2,1
    3568:	85ca                	mv	a1,s2
    356a:	00003097          	auipc	ra,0x3
    356e:	27c080e7          	jalr	636(ra) # 67e6 <write>
  close(fd);
    3572:	854e                	mv	a0,s3
    3574:	00003097          	auipc	ra,0x3
    3578:	27a080e7          	jalr	634(ra) # 67ee <close>
  fd = open(p, O_RDWR);
    357c:	4589                	li	a1,2
    357e:	854a                	mv	a0,s2
    3580:	00003097          	auipc	ra,0x3
    3584:	286080e7          	jalr	646(ra) # 6806 <open>
  p[0] = '\0';
    3588:	fc048023          	sb	zero,-64(s1)
  read(fd, p, 1);
    358c:	4605                	li	a2,1
    358e:	85ca                	mv	a1,s2
    3590:	00003097          	auipc	ra,0x3
    3594:	24e080e7          	jalr	590(ra) # 67de <read>
  if(p[0] != 'x')
    3598:	fc04c783          	lbu	a5,-64(s1)
    359c:	03479463          	bne	a5,s4,35c4 <sbrklast+0xc8>
}
    35a0:	70a2                	ld	ra,40(sp)
    35a2:	7402                	ld	s0,32(sp)
    35a4:	64e2                	ld	s1,24(sp)
    35a6:	6942                	ld	s2,16(sp)
    35a8:	69a2                	ld	s3,8(sp)
    35aa:	6a02                	ld	s4,0(sp)
    35ac:	6145                	addi	sp,sp,48
    35ae:	8082                	ret
    sbrk(4096 - (top % 4096));
    35b0:	0347d513          	srli	a0,a5,0x34
    35b4:	6785                	lui	a5,0x1
    35b6:	40a7853b          	subw	a0,a5,a0
    35ba:	00003097          	auipc	ra,0x3
    35be:	294080e7          	jalr	660(ra) # 684e <sbrk>
    35c2:	bfa9                	j	351c <sbrklast+0x20>
    exit(1,"");
    35c4:	00005597          	auipc	a1,0x5
    35c8:	d8458593          	addi	a1,a1,-636 # 8348 <malloc+0x172c>
    35cc:	4505                	li	a0,1
    35ce:	00003097          	auipc	ra,0x3
    35d2:	1f8080e7          	jalr	504(ra) # 67c6 <exit>

00000000000035d6 <sbrk8000>:
{
    35d6:	1141                	addi	sp,sp,-16
    35d8:	e406                	sd	ra,8(sp)
    35da:	e022                	sd	s0,0(sp)
    35dc:	0800                	addi	s0,sp,16
  sbrk(0x80000004);
    35de:	80000537          	lui	a0,0x80000
    35e2:	0511                	addi	a0,a0,4
    35e4:	00003097          	auipc	ra,0x3
    35e8:	26a080e7          	jalr	618(ra) # 684e <sbrk>
  volatile char *top = sbrk(0);
    35ec:	4501                	li	a0,0
    35ee:	00003097          	auipc	ra,0x3
    35f2:	260080e7          	jalr	608(ra) # 684e <sbrk>
  *(top-1) = *(top-1) + 1;
    35f6:	fff54783          	lbu	a5,-1(a0) # ffffffff7fffffff <base+0xffffffff7ffef387>
    35fa:	0785                	addi	a5,a5,1
    35fc:	0ff7f793          	andi	a5,a5,255
    3600:	fef50fa3          	sb	a5,-1(a0)
}
    3604:	60a2                	ld	ra,8(sp)
    3606:	6402                	ld	s0,0(sp)
    3608:	0141                	addi	sp,sp,16
    360a:	8082                	ret

000000000000360c <execout>:
{
    360c:	715d                	addi	sp,sp,-80
    360e:	e486                	sd	ra,72(sp)
    3610:	e0a2                	sd	s0,64(sp)
    3612:	fc26                	sd	s1,56(sp)
    3614:	f84a                	sd	s2,48(sp)
    3616:	f44e                	sd	s3,40(sp)
    3618:	f052                	sd	s4,32(sp)
    361a:	0880                	addi	s0,sp,80
  for(int avail = 0; avail < 15; avail++){
    361c:	4901                	li	s2,0
      wait((int*)0,"");
    361e:	00005a17          	auipc	s4,0x5
    3622:	d2aa0a13          	addi	s4,s4,-726 # 8348 <malloc+0x172c>
  for(int avail = 0; avail < 15; avail++){
    3626:	49bd                	li	s3,15
    int pid = fork();
    3628:	00003097          	auipc	ra,0x3
    362c:	196080e7          	jalr	406(ra) # 67be <fork>
    3630:	84aa                	mv	s1,a0
    if(pid < 0){
    3632:	02054563          	bltz	a0,365c <execout+0x50>
    } else if(pid == 0){
    3636:	c521                	beqz	a0,367e <execout+0x72>
      wait((int*)0,"");
    3638:	85d2                	mv	a1,s4
    363a:	4501                	li	a0,0
    363c:	00003097          	auipc	ra,0x3
    3640:	192080e7          	jalr	402(ra) # 67ce <wait>
  for(int avail = 0; avail < 15; avail++){
    3644:	2905                	addiw	s2,s2,1
    3646:	ff3911e3          	bne	s2,s3,3628 <execout+0x1c>
  exit(0,"");
    364a:	00005597          	auipc	a1,0x5
    364e:	cfe58593          	addi	a1,a1,-770 # 8348 <malloc+0x172c>
    3652:	4501                	li	a0,0
    3654:	00003097          	auipc	ra,0x3
    3658:	172080e7          	jalr	370(ra) # 67c6 <exit>
      printf("fork failed\n");
    365c:	00004517          	auipc	a0,0x4
    3660:	38c50513          	addi	a0,a0,908 # 79e8 <malloc+0xdcc>
    3664:	00003097          	auipc	ra,0x3
    3668:	4fa080e7          	jalr	1274(ra) # 6b5e <printf>
      exit(1,"");
    366c:	00005597          	auipc	a1,0x5
    3670:	cdc58593          	addi	a1,a1,-804 # 8348 <malloc+0x172c>
    3674:	4505                	li	a0,1
    3676:	00003097          	auipc	ra,0x3
    367a:	150080e7          	jalr	336(ra) # 67c6 <exit>
        if(a == 0xffffffffffffffffLL)
    367e:	59fd                	li	s3,-1
        *(char*)(a + 4096 - 1) = 1;
    3680:	4a05                	li	s4,1
        uint64 a = (uint64) sbrk(4096);
    3682:	6505                	lui	a0,0x1
    3684:	00003097          	auipc	ra,0x3
    3688:	1ca080e7          	jalr	458(ra) # 684e <sbrk>
        if(a == 0xffffffffffffffffLL)
    368c:	01350763          	beq	a0,s3,369a <execout+0x8e>
        *(char*)(a + 4096 - 1) = 1;
    3690:	6785                	lui	a5,0x1
    3692:	953e                	add	a0,a0,a5
    3694:	ff450fa3          	sb	s4,-1(a0) # fff <unlinkread+0x187>
      while(1){
    3698:	b7ed                	j	3682 <execout+0x76>
      for(int i = 0; i < avail; i++)
    369a:	01205a63          	blez	s2,36ae <execout+0xa2>
        sbrk(-4096);
    369e:	757d                	lui	a0,0xfffff
    36a0:	00003097          	auipc	ra,0x3
    36a4:	1ae080e7          	jalr	430(ra) # 684e <sbrk>
      for(int i = 0; i < avail; i++)
    36a8:	2485                	addiw	s1,s1,1
    36aa:	ff249ae3          	bne	s1,s2,369e <execout+0x92>
      close(1);
    36ae:	4505                	li	a0,1
    36b0:	00003097          	auipc	ra,0x3
    36b4:	13e080e7          	jalr	318(ra) # 67ee <close>
      char *args[] = { "echo", "x", 0 };
    36b8:	00003517          	auipc	a0,0x3
    36bc:	6a050513          	addi	a0,a0,1696 # 6d58 <malloc+0x13c>
    36c0:	faa43c23          	sd	a0,-72(s0)
    36c4:	00003797          	auipc	a5,0x3
    36c8:	70478793          	addi	a5,a5,1796 # 6dc8 <malloc+0x1ac>
    36cc:	fcf43023          	sd	a5,-64(s0)
    36d0:	fc043423          	sd	zero,-56(s0)
      exec("echo", args);
    36d4:	fb840593          	addi	a1,s0,-72
    36d8:	00003097          	auipc	ra,0x3
    36dc:	126080e7          	jalr	294(ra) # 67fe <exec>
      exit(0,"");
    36e0:	00005597          	auipc	a1,0x5
    36e4:	c6858593          	addi	a1,a1,-920 # 8348 <malloc+0x172c>
    36e8:	4501                	li	a0,0
    36ea:	00003097          	auipc	ra,0x3
    36ee:	0dc080e7          	jalr	220(ra) # 67c6 <exit>

00000000000036f2 <fourteen>:
{
    36f2:	1101                	addi	sp,sp,-32
    36f4:	ec06                	sd	ra,24(sp)
    36f6:	e822                	sd	s0,16(sp)
    36f8:	e426                	sd	s1,8(sp)
    36fa:	1000                	addi	s0,sp,32
    36fc:	84aa                	mv	s1,a0
  if(mkdir("12345678901234") != 0){
    36fe:	00004517          	auipc	a0,0x4
    3702:	7fa50513          	addi	a0,a0,2042 # 7ef8 <malloc+0x12dc>
    3706:	00003097          	auipc	ra,0x3
    370a:	128080e7          	jalr	296(ra) # 682e <mkdir>
    370e:	e175                	bnez	a0,37f2 <fourteen+0x100>
  if(mkdir("12345678901234/123456789012345") != 0){
    3710:	00004517          	auipc	a0,0x4
    3714:	64050513          	addi	a0,a0,1600 # 7d50 <malloc+0x1134>
    3718:	00003097          	auipc	ra,0x3
    371c:	116080e7          	jalr	278(ra) # 682e <mkdir>
    3720:	e97d                	bnez	a0,3816 <fourteen+0x124>
  fd = open("123456789012345/123456789012345/123456789012345", O_CREATE);
    3722:	20000593          	li	a1,512
    3726:	00004517          	auipc	a0,0x4
    372a:	68250513          	addi	a0,a0,1666 # 7da8 <malloc+0x118c>
    372e:	00003097          	auipc	ra,0x3
    3732:	0d8080e7          	jalr	216(ra) # 6806 <open>
  if(fd < 0){
    3736:	10054263          	bltz	a0,383a <fourteen+0x148>
  close(fd);
    373a:	00003097          	auipc	ra,0x3
    373e:	0b4080e7          	jalr	180(ra) # 67ee <close>
  fd = open("12345678901234/12345678901234/12345678901234", 0);
    3742:	4581                	li	a1,0
    3744:	00004517          	auipc	a0,0x4
    3748:	6dc50513          	addi	a0,a0,1756 # 7e20 <malloc+0x1204>
    374c:	00003097          	auipc	ra,0x3
    3750:	0ba080e7          	jalr	186(ra) # 6806 <open>
  if(fd < 0){
    3754:	10054563          	bltz	a0,385e <fourteen+0x16c>
  close(fd);
    3758:	00003097          	auipc	ra,0x3
    375c:	096080e7          	jalr	150(ra) # 67ee <close>
  if(mkdir("12345678901234/12345678901234") == 0){
    3760:	00004517          	auipc	a0,0x4
    3764:	73050513          	addi	a0,a0,1840 # 7e90 <malloc+0x1274>
    3768:	00003097          	auipc	ra,0x3
    376c:	0c6080e7          	jalr	198(ra) # 682e <mkdir>
    3770:	10050963          	beqz	a0,3882 <fourteen+0x190>
  if(mkdir("123456789012345/12345678901234") == 0){
    3774:	00004517          	auipc	a0,0x4
    3778:	77450513          	addi	a0,a0,1908 # 7ee8 <malloc+0x12cc>
    377c:	00003097          	auipc	ra,0x3
    3780:	0b2080e7          	jalr	178(ra) # 682e <mkdir>
    3784:	12050163          	beqz	a0,38a6 <fourteen+0x1b4>
  unlink("123456789012345/12345678901234");
    3788:	00004517          	auipc	a0,0x4
    378c:	76050513          	addi	a0,a0,1888 # 7ee8 <malloc+0x12cc>
    3790:	00003097          	auipc	ra,0x3
    3794:	086080e7          	jalr	134(ra) # 6816 <unlink>
  unlink("12345678901234/12345678901234");
    3798:	00004517          	auipc	a0,0x4
    379c:	6f850513          	addi	a0,a0,1784 # 7e90 <malloc+0x1274>
    37a0:	00003097          	auipc	ra,0x3
    37a4:	076080e7          	jalr	118(ra) # 6816 <unlink>
  unlink("12345678901234/12345678901234/12345678901234");
    37a8:	00004517          	auipc	a0,0x4
    37ac:	67850513          	addi	a0,a0,1656 # 7e20 <malloc+0x1204>
    37b0:	00003097          	auipc	ra,0x3
    37b4:	066080e7          	jalr	102(ra) # 6816 <unlink>
  unlink("123456789012345/123456789012345/123456789012345");
    37b8:	00004517          	auipc	a0,0x4
    37bc:	5f050513          	addi	a0,a0,1520 # 7da8 <malloc+0x118c>
    37c0:	00003097          	auipc	ra,0x3
    37c4:	056080e7          	jalr	86(ra) # 6816 <unlink>
  unlink("12345678901234/123456789012345");
    37c8:	00004517          	auipc	a0,0x4
    37cc:	58850513          	addi	a0,a0,1416 # 7d50 <malloc+0x1134>
    37d0:	00003097          	auipc	ra,0x3
    37d4:	046080e7          	jalr	70(ra) # 6816 <unlink>
  unlink("12345678901234");
    37d8:	00004517          	auipc	a0,0x4
    37dc:	72050513          	addi	a0,a0,1824 # 7ef8 <malloc+0x12dc>
    37e0:	00003097          	auipc	ra,0x3
    37e4:	036080e7          	jalr	54(ra) # 6816 <unlink>
}
    37e8:	60e2                	ld	ra,24(sp)
    37ea:	6442                	ld	s0,16(sp)
    37ec:	64a2                	ld	s1,8(sp)
    37ee:	6105                	addi	sp,sp,32
    37f0:	8082                	ret
    printf("%s: mkdir 12345678901234 failed\n", s);
    37f2:	85a6                	mv	a1,s1
    37f4:	00004517          	auipc	a0,0x4
    37f8:	53450513          	addi	a0,a0,1332 # 7d28 <malloc+0x110c>
    37fc:	00003097          	auipc	ra,0x3
    3800:	362080e7          	jalr	866(ra) # 6b5e <printf>
    exit(1,"");
    3804:	00005597          	auipc	a1,0x5
    3808:	b4458593          	addi	a1,a1,-1212 # 8348 <malloc+0x172c>
    380c:	4505                	li	a0,1
    380e:	00003097          	auipc	ra,0x3
    3812:	fb8080e7          	jalr	-72(ra) # 67c6 <exit>
    printf("%s: mkdir 12345678901234/123456789012345 failed\n", s);
    3816:	85a6                	mv	a1,s1
    3818:	00004517          	auipc	a0,0x4
    381c:	55850513          	addi	a0,a0,1368 # 7d70 <malloc+0x1154>
    3820:	00003097          	auipc	ra,0x3
    3824:	33e080e7          	jalr	830(ra) # 6b5e <printf>
    exit(1,"");
    3828:	00005597          	auipc	a1,0x5
    382c:	b2058593          	addi	a1,a1,-1248 # 8348 <malloc+0x172c>
    3830:	4505                	li	a0,1
    3832:	00003097          	auipc	ra,0x3
    3836:	f94080e7          	jalr	-108(ra) # 67c6 <exit>
    printf("%s: create 123456789012345/123456789012345/123456789012345 failed\n", s);
    383a:	85a6                	mv	a1,s1
    383c:	00004517          	auipc	a0,0x4
    3840:	59c50513          	addi	a0,a0,1436 # 7dd8 <malloc+0x11bc>
    3844:	00003097          	auipc	ra,0x3
    3848:	31a080e7          	jalr	794(ra) # 6b5e <printf>
    exit(1,"");
    384c:	00005597          	auipc	a1,0x5
    3850:	afc58593          	addi	a1,a1,-1284 # 8348 <malloc+0x172c>
    3854:	4505                	li	a0,1
    3856:	00003097          	auipc	ra,0x3
    385a:	f70080e7          	jalr	-144(ra) # 67c6 <exit>
    printf("%s: open 12345678901234/12345678901234/12345678901234 failed\n", s);
    385e:	85a6                	mv	a1,s1
    3860:	00004517          	auipc	a0,0x4
    3864:	5f050513          	addi	a0,a0,1520 # 7e50 <malloc+0x1234>
    3868:	00003097          	auipc	ra,0x3
    386c:	2f6080e7          	jalr	758(ra) # 6b5e <printf>
    exit(1,"");
    3870:	00005597          	auipc	a1,0x5
    3874:	ad858593          	addi	a1,a1,-1320 # 8348 <malloc+0x172c>
    3878:	4505                	li	a0,1
    387a:	00003097          	auipc	ra,0x3
    387e:	f4c080e7          	jalr	-180(ra) # 67c6 <exit>
    printf("%s: mkdir 12345678901234/12345678901234 succeeded!\n", s);
    3882:	85a6                	mv	a1,s1
    3884:	00004517          	auipc	a0,0x4
    3888:	62c50513          	addi	a0,a0,1580 # 7eb0 <malloc+0x1294>
    388c:	00003097          	auipc	ra,0x3
    3890:	2d2080e7          	jalr	722(ra) # 6b5e <printf>
    exit(1,"");
    3894:	00005597          	auipc	a1,0x5
    3898:	ab458593          	addi	a1,a1,-1356 # 8348 <malloc+0x172c>
    389c:	4505                	li	a0,1
    389e:	00003097          	auipc	ra,0x3
    38a2:	f28080e7          	jalr	-216(ra) # 67c6 <exit>
    printf("%s: mkdir 12345678901234/123456789012345 succeeded!\n", s);
    38a6:	85a6                	mv	a1,s1
    38a8:	00004517          	auipc	a0,0x4
    38ac:	66050513          	addi	a0,a0,1632 # 7f08 <malloc+0x12ec>
    38b0:	00003097          	auipc	ra,0x3
    38b4:	2ae080e7          	jalr	686(ra) # 6b5e <printf>
    exit(1,"");
    38b8:	00005597          	auipc	a1,0x5
    38bc:	a9058593          	addi	a1,a1,-1392 # 8348 <malloc+0x172c>
    38c0:	4505                	li	a0,1
    38c2:	00003097          	auipc	ra,0x3
    38c6:	f04080e7          	jalr	-252(ra) # 67c6 <exit>

00000000000038ca <diskfull>:
{
    38ca:	b9010113          	addi	sp,sp,-1136
    38ce:	46113423          	sd	ra,1128(sp)
    38d2:	46813023          	sd	s0,1120(sp)
    38d6:	44913c23          	sd	s1,1112(sp)
    38da:	45213823          	sd	s2,1104(sp)
    38de:	45313423          	sd	s3,1096(sp)
    38e2:	45413023          	sd	s4,1088(sp)
    38e6:	43513c23          	sd	s5,1080(sp)
    38ea:	43613823          	sd	s6,1072(sp)
    38ee:	43713423          	sd	s7,1064(sp)
    38f2:	43813023          	sd	s8,1056(sp)
    38f6:	47010413          	addi	s0,sp,1136
    38fa:	8c2a                	mv	s8,a0
  unlink("diskfulldir");
    38fc:	00004517          	auipc	a0,0x4
    3900:	64450513          	addi	a0,a0,1604 # 7f40 <malloc+0x1324>
    3904:	00003097          	auipc	ra,0x3
    3908:	f12080e7          	jalr	-238(ra) # 6816 <unlink>
  for(fi = 0; done == 0; fi++){
    390c:	4a01                	li	s4,0
    name[0] = 'b';
    390e:	06200b13          	li	s6,98
    name[1] = 'i';
    3912:	06900a93          	li	s5,105
    name[2] = 'g';
    3916:	06700993          	li	s3,103
    391a:	10c00b93          	li	s7,268
    391e:	aabd                	j	3a9c <diskfull+0x1d2>
      printf("%s: could not create file %s\n", s, name);
    3920:	b9040613          	addi	a2,s0,-1136
    3924:	85e2                	mv	a1,s8
    3926:	00004517          	auipc	a0,0x4
    392a:	62a50513          	addi	a0,a0,1578 # 7f50 <malloc+0x1334>
    392e:	00003097          	auipc	ra,0x3
    3932:	230080e7          	jalr	560(ra) # 6b5e <printf>
      break;
    3936:	a821                	j	394e <diskfull+0x84>
        close(fd);
    3938:	854a                	mv	a0,s2
    393a:	00003097          	auipc	ra,0x3
    393e:	eb4080e7          	jalr	-332(ra) # 67ee <close>
    close(fd);
    3942:	854a                	mv	a0,s2
    3944:	00003097          	auipc	ra,0x3
    3948:	eaa080e7          	jalr	-342(ra) # 67ee <close>
  for(fi = 0; done == 0; fi++){
    394c:	2a05                	addiw	s4,s4,1
  for(int i = 0; i < nzz; i++){
    394e:	4481                	li	s1,0
    name[0] = 'z';
    3950:	07a00913          	li	s2,122
  for(int i = 0; i < nzz; i++){
    3954:	08000993          	li	s3,128
    name[0] = 'z';
    3958:	bb240823          	sb	s2,-1104(s0)
    name[1] = 'z';
    395c:	bb2408a3          	sb	s2,-1103(s0)
    name[2] = '0' + (i / 32);
    3960:	41f4d79b          	sraiw	a5,s1,0x1f
    3964:	01b7d71b          	srliw	a4,a5,0x1b
    3968:	009707bb          	addw	a5,a4,s1
    396c:	4057d69b          	sraiw	a3,a5,0x5
    3970:	0306869b          	addiw	a3,a3,48
    3974:	bad40923          	sb	a3,-1102(s0)
    name[3] = '0' + (i % 32);
    3978:	8bfd                	andi	a5,a5,31
    397a:	9f99                	subw	a5,a5,a4
    397c:	0307879b          	addiw	a5,a5,48
    3980:	baf409a3          	sb	a5,-1101(s0)
    name[4] = '\0';
    3984:	ba040a23          	sb	zero,-1100(s0)
    unlink(name);
    3988:	bb040513          	addi	a0,s0,-1104
    398c:	00003097          	auipc	ra,0x3
    3990:	e8a080e7          	jalr	-374(ra) # 6816 <unlink>
    int fd = open(name, O_CREATE|O_RDWR|O_TRUNC);
    3994:	60200593          	li	a1,1538
    3998:	bb040513          	addi	a0,s0,-1104
    399c:	00003097          	auipc	ra,0x3
    39a0:	e6a080e7          	jalr	-406(ra) # 6806 <open>
    if(fd < 0)
    39a4:	00054963          	bltz	a0,39b6 <diskfull+0xec>
    close(fd);
    39a8:	00003097          	auipc	ra,0x3
    39ac:	e46080e7          	jalr	-442(ra) # 67ee <close>
  for(int i = 0; i < nzz; i++){
    39b0:	2485                	addiw	s1,s1,1
    39b2:	fb3493e3          	bne	s1,s3,3958 <diskfull+0x8e>
  if(mkdir("diskfulldir") == 0)
    39b6:	00004517          	auipc	a0,0x4
    39ba:	58a50513          	addi	a0,a0,1418 # 7f40 <malloc+0x1324>
    39be:	00003097          	auipc	ra,0x3
    39c2:	e70080e7          	jalr	-400(ra) # 682e <mkdir>
    39c6:	12050963          	beqz	a0,3af8 <diskfull+0x22e>
  unlink("diskfulldir");
    39ca:	00004517          	auipc	a0,0x4
    39ce:	57650513          	addi	a0,a0,1398 # 7f40 <malloc+0x1324>
    39d2:	00003097          	auipc	ra,0x3
    39d6:	e44080e7          	jalr	-444(ra) # 6816 <unlink>
  for(int i = 0; i < nzz; i++){
    39da:	4481                	li	s1,0
    name[0] = 'z';
    39dc:	07a00913          	li	s2,122
  for(int i = 0; i < nzz; i++){
    39e0:	08000993          	li	s3,128
    name[0] = 'z';
    39e4:	bb240823          	sb	s2,-1104(s0)
    name[1] = 'z';
    39e8:	bb2408a3          	sb	s2,-1103(s0)
    name[2] = '0' + (i / 32);
    39ec:	41f4d79b          	sraiw	a5,s1,0x1f
    39f0:	01b7d71b          	srliw	a4,a5,0x1b
    39f4:	009707bb          	addw	a5,a4,s1
    39f8:	4057d69b          	sraiw	a3,a5,0x5
    39fc:	0306869b          	addiw	a3,a3,48
    3a00:	bad40923          	sb	a3,-1102(s0)
    name[3] = '0' + (i % 32);
    3a04:	8bfd                	andi	a5,a5,31
    3a06:	9f99                	subw	a5,a5,a4
    3a08:	0307879b          	addiw	a5,a5,48
    3a0c:	baf409a3          	sb	a5,-1101(s0)
    name[4] = '\0';
    3a10:	ba040a23          	sb	zero,-1100(s0)
    unlink(name);
    3a14:	bb040513          	addi	a0,s0,-1104
    3a18:	00003097          	auipc	ra,0x3
    3a1c:	dfe080e7          	jalr	-514(ra) # 6816 <unlink>
  for(int i = 0; i < nzz; i++){
    3a20:	2485                	addiw	s1,s1,1
    3a22:	fd3491e3          	bne	s1,s3,39e4 <diskfull+0x11a>
  for(int i = 0; i < fi; i++){
    3a26:	03405e63          	blez	s4,3a62 <diskfull+0x198>
    3a2a:	4481                	li	s1,0
    name[0] = 'b';
    3a2c:	06200a93          	li	s5,98
    name[1] = 'i';
    3a30:	06900993          	li	s3,105
    name[2] = 'g';
    3a34:	06700913          	li	s2,103
    name[0] = 'b';
    3a38:	bb540823          	sb	s5,-1104(s0)
    name[1] = 'i';
    3a3c:	bb3408a3          	sb	s3,-1103(s0)
    name[2] = 'g';
    3a40:	bb240923          	sb	s2,-1102(s0)
    name[3] = '0' + i;
    3a44:	0304879b          	addiw	a5,s1,48
    3a48:	baf409a3          	sb	a5,-1101(s0)
    name[4] = '\0';
